(lp0
(lp1
(lp2
F219.15584839080805
aF286.15758648024104
aF0.0
aF0.0
aF0.0
aF0.0
aF0.0
aa(lp3
F220.8245821028528
aF285.92649066359945
aF0.0
aF0.0
aF0.0
aF0.0
aF0.0
aa(lp4
F222.43912233760506
aF285.2940348990876
aF0.0
aF0.0
aF0.0
aF0.0
aF0.0
aa(lp5
F222.74576492722878
aF285.15648509369254
aF0.0
aF0.0
aF0.0
aF0.0
aF0.0
aa(lp6
F223.85400776743893
aF284.27835844098263
aF0.0
aF0.0
aF0.0
aF0.0
aF0.0
aa(lp7
F224.97070651604133
aF282.9430586594128
aF0.0
aF0.0
aF0.0
aF0.0
aF0.0
aa(lp8
F225.69892016415133
aF281.3625712451643
aF0.0
aF0.0
aF0.0
aF0.0
aF0.0
aa(lp9
F225.9728631885044
aF279.64730353367656
aF0.0
aF0.0
aF0.0
aF0.0
aF0.0
aa(lp10
F225.75486575246975
aF277.93046947024885
aF0.0
aF0.0
aF0.0
aF0.0
aF0.0
aa(lp11
F225.06301516749573
aF276.38349752311046
aF0.0
aF0.0
aF0.0
aF0.0
aF0.0
aa(lp12
F224.00813813585648
aF275.1670266275491
aF0.0
aF0.0
aF0.0
aF0.0
aF0.0
aa(lp13
F222.57212276866022
aF274.16384355645505
aF0.0
aF0.0
aF0.0
aF0.0
aF0.0
aa(lp14
F219.76471775368407
aF271.62134150810766
aF0.0
aF0.0
aF0.0
aF0.0
aF0.0
aa(lp15
F218.97763148382558
aF271.52327648775736
aF0.0
aF0.0
aF0.0
aF0.0
aF0.0
aa(lp16
F227.16696847007245
aF273.23910754556556
aF0.0
aF0.0
aF0.0
aF0.0
aF0.0
aa(lp17
F227.68626224405165
aF273.5464381305494
aF0.0
aF0.0
aF0.0
aF0.0
aF0.0
aaa(lp18
(lp19
F187.15063115574918
aF255.20105249208189
aF0.0
aF0.0
aF0.0
aF0.0
aF0.0
aa(lp20
F188.8255881583344
aF253.81824312620626
aF0.0
aF0.0
aF0.0
aF0.0
aF0.0
aa(lp21
F190.50054516091961
aF252.43543376033062
aF0.0
aF0.0
aF0.0
aF0.0
aF0.0
aa(lp22
F192.9955652864502
aF250.3755974825595
aF0.0
aF0.0
aF0.0
aF0.0
aF0.0
aa(lp23
F194.09223551071773
aF248.50077559180093
aF0.0
aF0.0
aF0.0
aF0.0
aF0.0
aa(lp24
F195.6666520177397
aF245.80921848810746
aF0.0
aF0.0
aF0.0
aF0.0
aF0.0
aa(lp25
F196.77443248257885
aF244.64195903733565
aF0.0
aF0.0
aF0.0
aF0.0
aF0.0
aa(lp26
F197.14191464260358
aF244.14281957308688
aF0.0
aF0.0
aF0.0
aF0.0
aF0.0
aa(lp27
F198.3059786532399
aF242.30908085614712
aF0.0
aF0.0
aF0.0
aF0.0
aF0.0
aa(lp28
F199.4700426638762
aF240.47534213920736
aF0.0
aF0.0
aF0.0
aF0.0
aF0.0
aa(lp29
F200.3955976307226
aF239.0173243997582
aF0.0
aF0.0
aF0.0
aF0.0
aF0.0
aa(lp30
F202.12232951694028
aF237.54286753775364
aF0.0
aF0.0
aF0.0
aF0.0
aF0.0
aa(lp31
F204.4927063911939
aF235.78207047601225
aF0.0
aF0.0
aF0.0
aF0.0
aF0.0
aa(lp32
F209.42500987346278
aF234.9256747349945
aF0.0
aF0.0
aF0.0
aF0.0
aF0.0
aaa(lp33
(lp34
F253.77626636742104
aF227.01286575740642
aF0.0
aF0.0
aF0.0
aF0.0
aF0.0
aa(lp35
F252.94203130050278
aF228.39324145646157
aF0.0
aF0.0
aF0.0
aF0.0
aF0.0
aa(lp36
F252.00877050401027
aF229.86352045349204
aF0.0
aF0.0
aF0.0
aF0.0
aF0.0
aa(lp37
F250.84477553447562
aF231.69730299615097
aF0.0
aF0.0
aF0.0
aF0.0
aF0.0
aa(lp38
F249.68078056494096
aF233.5310855388099
aF0.0
aF0.0
aF0.0
aF0.0
aF0.0
aa(lp39
F248.5167855954063
aF235.3648680814688
aF0.0
aF0.0
aF0.0
aF0.0
aF0.0
aa(lp40
F247.23458450144665
aF237.4244527769217
aF0.0
aF0.0
aF0.0
aF0.0
aF0.0
aa(lp41
F245.56369831776487
aF240.08651124636322
aF0.0
aF0.0
aF0.0
aF0.0
aF0.0
aa(lp42
F244.96633618301607
aF241.05551465417327
aF0.0
aF0.0
aF0.0
aF0.0
aF0.0
aa(lp43
F241.40457124503234
aF244.55381541047183
aF0.0
aF0.0
aF0.0
aF0.0
aF0.0
aa(lp44
F242.09652424091473
aF245.65486284573987
aF0.0
aF0.0
aF0.0
aF0.0
aF0.0
aa(lp45
F244.35136171978422
aF248.503241455671
aF0.0
aF0.0
aF0.0
aF0.0
aF0.0
aa(lp46
F244.6867935106382
aF249.1100003632484
aF0.0
aF0.0
aF0.0
aF0.0
aF0.0
aa(lp47
F245.15964072295378
aF250.5083306975938
aF0.0
aF0.0
aF0.0
aF0.0
aF0.0
aa(lp48
F245.5778690034678
aF250.98407806534078
aF0.0
aF0.0
aF0.0
aF0.0
aF0.0
aa(lp49
F246.02743380196944
aF252.34075986744946
aF0.0
aF0.0
aF0.0
aF0.0
aF0.0
aa(lp50
F246.29136522260785
aF253.4429167527552
aF0.0
aF0.0
aF0.0
aF0.0
aF0.0
aa(lp51
F247.19854967320236
aF254.62662842746272
aF0.0
aF0.0
aF0.0
aF0.0
aF0.0
aa(lp52
F248.22488309087123
aF255.82050340956746
aF0.0
aF0.0
aF0.0
aF0.0
aF0.0
aa(lp53
F249.00248516168404
aF257.169111564779
aF0.0
aF0.0
aF0.0
aF0.0
aF0.0
aa(lp54
F251.35619132043178
aF258.98292193194186
aF0.0
aF0.0
aF0.0
aF0.0
aF0.0
aa(lp55
F251.54781337703508
aF259.67930806155766
aF0.0
aF0.0
aF0.0
aF0.0
aF0.0
aa(lp56
F252.91393440933587
aF260.97791084328003
aF0.0
aF0.0
aF0.0
aF0.0
aF0.0
aa(lp57
F254.7512355609216
aF261.8807198532847
aF0.0
aF0.0
aF0.0
aF0.0
aF0.0
aa(lp58
F255.2594779965766
aF264.11366681497884
aF0.0
aF0.0
aF0.0
aF0.0
aF0.0
aa(lp59
F256.07714351387483
aF267.1485643895757
aF0.0
aF0.0
aF0.0
aF0.0
aF0.0
aa(lp60
F256.7563731847335
aF269.5049737330683
aF0.0
aF0.0
aF0.0
aF0.0
aF0.0
aa(lp61
F256.44506292638664
aF271.6545617461328
aF0.0
aF0.0
aF0.0
aF0.0
aF0.0
aa(lp62
F256.2579513686379
aF272.9465614501527
aF0.0
aF0.0
aF0.0
aF0.0
aF0.0
aaa(lp63
(lp64
F313.24299568878484
aF139.5741338839941
aF0.0
aF0.0
aF0.0
aF0.0
aF0.0
aa(lp65
F313.5420807016336
aF143.58379231828198
aF0.0
aF0.0
aF0.0
aF0.0
aF0.0
aa(lp66
F310.948477846228
aF146.37112069337377
aF0.0
aF0.0
aF0.0
aF0.0
aF0.0
aa(lp67
F307.0510762533269
aF150.9299679848109
aF0.0
aF0.0
aF0.0
aF0.0
aF0.0
aa(lp68
F306.00197959228154
aF152.27764985086267
aF0.0
aF0.0
aF0.0
aF0.0
aF0.0
aa(lp69
F304.15988780859954
aF154.6441400227147
aF0.0
aF0.0
aF0.0
aF0.0
aF0.0
aa(lp70
F302.62717707931813
aF156.95905002523867
aF0.0
aF0.0
aF0.0
aF0.0
aF0.0
aa(lp71
F300.97161358239265
aF159.4595886604029
aF0.0
aF0.0
aF0.0
aF0.0
aF0.0
aa(lp72
F299.3161500470356
aF161.9600273339987
aF0.0
aF0.0
aF0.0
aF0.0
aF0.0
aa(lp73
F297.66058655011017
aF164.4604660075945
aF0.0
aF0.0
aF0.0
aF0.0
aF0.0
aa(lp74
F296.04640714252935
aF166.96830183725683
aF0.0
aF0.0
aF0.0
aF0.0
aF0.0
aa(lp75
F294.4233311553552
aF169.49003232493578
aF0.0
aF0.0
aF0.0
aF0.0
aF0.0
aa(lp76
F292.80025516818097
aF172.01166285104628
aF0.0
aF0.0
aF0.0
aF0.0
aF0.0
aa(lp77
F291.0039457828561
aF174.776000065391
aF0.0
aF0.0
aF0.0
aF0.0
aF0.0
aa(lp78
F287.52048504497066
aF179.65842295395097
aF0.0
aF0.0
aF0.0
aF0.0
aF0.0
aa(lp79
F286.93890863963844
aF180.53748498703655
aF0.0
aF0.0
aF0.0
aF0.0
aF0.0
aa(lp80
F285.28414483526063
aF183.03842346847466
aF0.0
aF0.0
aF0.0
aF0.0
aF0.0
aa(lp81
F283.62928106931446
aF185.53936194991277
aF0.0
aF0.0
aF0.0
aF0.0
aF0.0
aa(lp82
F282.84398298744946
aF186.59365661251834
aF0.0
aF0.0
aF0.0
aF0.0
aF0.0
aa(lp83
F281.0525717189795
aF188.9986319882296
aF0.0
aF0.0
aF0.0
aF0.0
aF0.0
aa(lp84
F279.26116045050935
aF191.40360736394095
aF0.0
aF0.0
aF0.0
aF0.0
aF0.0
aa(lp85
F276.25771516439517
aF195.49953263181445
aF0.0
aF0.0
aF0.0
aF0.0
aF0.0
aa(lp86
F275.11665386036157
aF197.4232930169328
aF0.0
aF0.0
aF0.0
aF0.0
aF0.0
aa(lp87
F273.5868420165657
aF200.00250140647944
aF0.0
aF0.0
aF0.0
aF0.0
aF0.0
aa(lp88
F272.05693021120135
aF202.5818097575946
aF0.0
aF0.0
aF0.0
aF0.0
aF0.0
aa(lp89
F271.2935237128304
aF203.95658120870044
aF0.0
aF0.0
aF0.0
aF0.0
aF0.0
aa(lp90
F269.83768342969904
aF206.5783732264133
aF0.0
aF0.0
aF0.0
aF0.0
aF0.0
aa(lp91
F268.3818431465675
aF209.20006528255777
aF0.0
aF0.0
aF0.0
aF0.0
aF0.0
aa(lp92
F266.9261028250046
aF211.82185730027072
aF0.0
aF0.0
aF0.0
aF0.0
aF0.0
aa(lp93
F266.171792829364
aF213.1175591507204
aF0.0
aF0.0
aF0.0
aF0.0
aF0.0
aa(lp94
F264.66317283808274
aF215.70926273632523
aF0.0
aF0.0
aF0.0
aF0.0
aF0.0
aa(lp95
F263.1544528852331
aF218.30096632193013
aF0.0
aF0.0
aF0.0
aF0.0
aF0.0
aa(lp96
F261.6458328939519
aF220.89266990753484
aF0.0
aF0.0
aF0.0
aF0.0
aF0.0
aa(lp97
F261.0321688251422
aF221.98754896693742
aF0.0
aF0.0
aF0.0
aF0.0
aF0.0
aa(lp98
F253.15529719162998
aF238.73670953274137
aF0.0
aF0.0
aF0.0
aF0.0
aF0.0
aa(lp99
F254.28966107057636
aF236.35032700876468
aF0.0
aF0.0
aF0.0
aF0.0
aF0.0
aa(lp100
F255.12583959079018
aF234.64978080602975
aF0.0
aF0.0
aF0.0
aF0.0
aF0.0
aa(lp101
F256.7450170767942
aF232.1255512791391
aF0.0
aF0.0
aF0.0
aF0.0
aF0.0
aa(lp102
F257.4809341438372
aF231.25118743977148
aF0.0
aF0.0
aF0.0
aF0.0
aF0.0
aa(lp103
F259.60771647450906
aF228.8252201346824
aF0.0
aF0.0
aF0.0
aF0.0
aF0.0
aa(lp104
F260.87952751009544
aF227.1957466071265
aF0.0
aF0.0
aF0.0
aF0.0
aF0.0
aa(lp105
F262.72461814083147
aF224.83175547448602
aF0.0
aF0.0
aF0.0
aF0.0
aF0.0
aa(lp106
F263.0823805943695
aF224.36533479602605
aF0.0
aF0.0
aF0.0
aF0.0
aF0.0
aa(lp107
F264.90757887298093
aF221.9859495818419
aF0.0
aF0.0
aF0.0
aF0.0
aF0.0
aa(lp108
F266.4748763049514
aF220.09987470803503
aF0.0
aF0.0
aF0.0
aF0.0
aF0.0
aa(lp109
F268.3915394187087
aF217.79346143883078
aF0.0
aF0.0
aF0.0
aF0.0
aF0.0
aa(lp110
F269.99742201610684
aF216.05852845654374
aF0.0
aF0.0
aF0.0
aF0.0
aF0.0
aa(lp111
F272.03453881986513
aF213.85767460363894
aF0.0
aF0.0
aF0.0
aF0.0
aF0.0
aa(lp112
F275.0525784949752
aF210.86052689633811
aF0.0
aF0.0
aF0.0
aF0.0
aF0.0
aa(lp113
F275.70032945863164
aF210.14960022141156
aF0.0
aF0.0
aF0.0
aF0.0
aF0.0
aa(lp114
F277.72005294947684
aF207.93285247912075
aF0.0
aF0.0
aF0.0
aF0.0
aF0.0
aa(lp115
F281.09265630793413
aF204.84993774607648
aF0.0
aF0.0
aF0.0
aF0.0
aF0.0
aa(lp116
F282.7797076989262
aF203.7949433524917
aF0.0
aF0.0
aF0.0
aF0.0
aF0.0
aa(lp117
F283.3628834893539
aF203.21016817696858
aF0.0
aF0.0
aF0.0
aF0.0
aF0.0
aa(lp118
F286.61613273506333
aF201.41085994458976
aF0.0
aF0.0
aF0.0
aF0.0
aF0.0
aa(lp119
F287.946621211339
aF200.98022550764043
aF0.0
aF0.0
aF0.0
aF0.0
aF0.0
aa(lp120
F290.79962433691264
aF200.05668057658772
aF0.0
aF0.0
aF0.0
aF0.0
aF0.0
aa(lp121
F293.45880198123166
aF199.46510801440894
aF0.0
aF0.0
aF0.0
aF0.0
aF0.0
aa(lp122
F296.46834492302224
aF198.9124205023632
aF0.0
aF0.0
aF0.0
aF0.0
aF0.0
aa(lp123
F298.3922052697091
aF201.21283607745966
aF0.0
aF0.0
aF0.0
aF0.0
aF0.0
aa(lp124
F298.28934481575806
aF202.28122532121884
aF0.0
aF0.0
aF0.0
aF0.0
aF0.0
aa(lp125
F298.0020552679883
aF205.26637764030377
aF0.0
aF0.0
aF0.0
aF0.0
aF0.0
aa(lp126
F297.8252232533728
aF205.8675465130552
aF0.0
aF0.0
aF0.0
aF0.0
aF0.0
aa(lp127
F296.8501981145604
aF209.20846205430894
aF0.0
aF0.0
aF0.0
aF0.0
aF0.0
aa(lp128
F296.04670702723473
aF212.09765126766712
aF0.0
aF0.0
aF0.0
aF0.0
aF0.0
aa(lp129
F295.8777719765281
aF213.24540999678783
aF0.0
aF0.0
aF0.0
aF0.0
aF0.0
aa(lp130
F294.8614627099395
aF219.12504949235958
aF0.0
aF0.0
aF0.0
aF0.0
aF0.0
aa(lp131
F294.44442304630144
aF221.7941233319567
aF0.0
aF0.0
aF0.0
aF0.0
aF0.0
aa(lp132
F293.308559743828
aF224.5169764953882
aF0.0
aF0.0
aF0.0
aF0.0
aF0.0
aa(lp133
F292.15400362805156
aF227.28461244149227
aF0.0
aF0.0
aF0.0
aF0.0
aF0.0
aa(lp134
F291.33721765212005
aF228.5960082581911
aF0.0
aF0.0
aF0.0
aF0.0
aF0.0
aa(lp135
F289.7519271378258
aF231.1416295607333
aF0.0
aF0.0
aF0.0
aF0.0
aF0.0
aa(lp136
F288.1665366619631
aF233.6871509017071
aF0.0
aF0.0
aF0.0
aF0.0
aF0.0
aa(lp137
F286.5338643642162
aF235.86371409347467
aF0.0
aF0.0
aF0.0
aF0.0
aF0.0
aa(lp138
F284.7343562087005
aF238.26259181350954
aF0.0
aF0.0
aF0.0
aF0.0
aF0.0
aa(lp139
F282.93474809161614
aF240.66146953354448
aF0.0
aF0.0
aF0.0
aF0.0
aF0.0
aa(lp140
F281.90944228386564
aF242.01974732585353
aF0.0
aF0.0
aF0.0
aF0.0
aF0.0
aa(lp141
F280.1028368569888
aF244.41332708275974
aF0.0
aF0.0
aF0.0
aF0.0
aF0.0
aa(lp142
F277.8349087916437
aF247.41787194612706
aF0.0
aF0.0
aF0.0
aF0.0
aF0.0
aa(lp143
F277.2498337314152
aF248.53294324235964
aF0.0
aF0.0
aF0.0
aF0.0
aF0.0
aa(lp144
F275.806288721205
aF252.50501612690434
aF0.0
aF0.0
aF0.0
aF0.0
aF0.0
aa(lp145
F275.8090876451221
aF254.41018366028823
aF0.0
aF0.0
aF0.0
aF0.0
aF0.0
aa(lp146
F276.17044871512485
aF257.3861395150743
aF0.0
aF0.0
aF0.0
aF0.0
aF0.0
aa(lp147
F276.21123303505874
aF257.7357051199981
aF0.0
aF0.0
aF0.0
aF0.0
aF0.0
aa(lp148
F276.55859948547635
aF260.71435993713294
aF0.0
aF0.0
aF0.0
aF0.0
aF0.0
aa(lp149
F276.4959235820485
aF261.4811651288317
aF0.0
aF0.0
aF0.0
aF0.0
aF0.0
aa(lp150
F276.25161750871877
aF264.47001602594986
aF0.0
aF0.0
aF0.0
aF0.0
aF0.0
aa(lp151
F276.0073114353891
aF267.4588669230681
aF0.0
aF0.0
aF0.0
aF0.0
aF0.0
aa(lp152
F275.9829208126836
aF267.5900165008948
aF0.0
aF0.0
aF0.0
aF0.0
aF0.0
aa(lp153
F275.3902486732517
aF270.7689943012344
aF0.0
aF0.0
aF0.0
aF0.0
aF0.0
aa(lp154
F274.83696139179517
aF273.716261185871
aF0.0
aF0.0
aF0.0
aF0.0
aF0.0
aa(lp155
F274.09034843692643
aF276.0459655005277
aF0.0
aF0.0
aF0.0
aF0.0
aF0.0
aa(lp156
F271.8630571566472
aF279.02178206759856
aF0.0
aF0.0
aF0.0
aF0.0
aF0.0
aa(lp157
F270.9839235192402
aF281.0079257558654
aF0.0
aF0.0
aF0.0
aF0.0
aF0.0
aa(lp158
F270.06806330474984
aF283.07704233489886
aF0.0
aF0.0
aF0.0
aF0.0
aF0.0
aa(lp159
F269.01849670578156
aF284.21309027680024
aF0.0
aF0.0
aF0.0
aF0.0
aF0.0
aa(lp160
F268.6019334865401
aF285.93319551016606
aF0.0
aF0.0
aF0.0
aF0.0
aF0.0
aa(lp161
F268.9581771152176
aF286.51674830044584
aF0.0
aF0.0
aF0.0
aF0.0
aF0.0
aa(lp162
F268.9927344922279
aF288.6884868875131
aF0.0
aF0.0
aF0.0
aF0.0
aF0.0
aa(lp163
F269.01024314979816
aF289.7888084553717
aF0.0
aF0.0
aF0.0
aF0.0
aF0.0
aa(lp164
F268.7686390593977
aF291.94734271879315
aF0.0
aF0.0
aF0.0
aF0.0
aF0.0
aa(lp165
F268.6446510588511
aF293.05507374681196
aF0.0
aF0.0
aF0.0
aF0.0
aF0.0
aa(lp166
F268.20783605745663
aF295.18270984291
aF0.0
aF0.0
aF0.0
aF0.0
aF0.0
aa(lp167
F267.88212474339315
aF296.7691827124241
aF0.0
aF0.0
aF0.0
aF0.0
aF0.0
aa(lp168
F267.20323985012277
aF298.8323739310347
aF0.0
aF0.0
aF0.0
aF0.0
aF0.0
aa(lp169
F266.4913855749308
aF300.99576201650433
aF0.0
aF0.0
aF0.0
aF0.0
aF0.0
aa(lp170
F265.71159625381495
aF303.0229697802859
aF0.0
aF0.0
aF0.0
aF0.0
aF0.0
aa(lp171
F265.2126687732288
aF304.32002481145867
aF0.0
aF0.0
aF0.0
aF0.0
aF0.0
aa(lp172
F264.3097942838639
aF307.0822148157782
aF0.0
aF0.0
aF0.0
aF0.0
aF0.0
aa(lp173
F263.82882396878193
aF309.86475313931084
aF0.0
aF0.0
aF0.0
aF0.0
aF0.0
aa(lp174
F263.22818774049176
aF311.9520669212152
aF0.0
aF0.0
aF0.0
aF0.0
aF0.0
aa(lp175
F262.7972188408216
aF313.44975767226185
aF0.0
aF0.0
aF0.0
aF0.0
aF0.0
aa(lp176
F262.07226894502566
aF316.0805736709572
aF0.0
aF0.0
aF0.0
aF0.0
aF0.0
aa(lp177
F260.77146905458426
aF320.9132156984214
aF0.0
aF0.0
aF0.0
aF0.0
aF0.0
aa(lp178
F259.75436009544785
aF323.7343310836545
aF0.0
aF0.0
aF0.0
aF0.0
aF0.0
aa(lp179
F258.73735109788
aF326.5554464688876
aF0.0
aF0.0
aF0.0
aF0.0
aF0.0
aa(lp180
F257.95915028737613
aF328.7140165783315
aF0.0
aF0.0
aF0.0
aF0.0
aF0.0
aa(lp181
F256.5663857539464
aF330.97834602721184
aF0.0
aF0.0
aF0.0
aF0.0
aF0.0
aa(lp182
F254.95250623107097
aF333.50597424743023
aF0.0
aF0.0
aF0.0
aF0.0
aF0.0
aa(lp183
F253.9694841667814
aF335.04558232493576
aF0.0
aF0.0
aF0.0
aF0.0
aF0.0
aa(lp184
F249.50100213323697
aF338.0224378338381
aF0.0
aF0.0
aF0.0
aF0.0
aF0.0
aa(lp185
F247.87662664567267
aF338.95068095860864
aF0.0
aF0.0
aF0.0
aF0.0
aF0.0
aa(lp186
F246.37750300339576
aF339.80745156192637
aF0.0
aF0.0
aF0.0
aF0.0
aF0.0
aa(lp187
F242.088052138973
aF342.32718281823605
aF0.0
aF0.0
aF0.0
aF0.0
aF0.0
aa(lp188
F239.90689071505597
aF343.38937444475033
aF0.0
aF0.0
aF0.0
aF0.0
aF0.0
aa(lp189
F237.0844758294328
aF344.40298474899043
aF0.0
aF0.0
aF0.0
aF0.0
aF0.0
aa(lp190
F233.55363330809473
aF345.0076522766382
aF0.0
aF0.0
aF0.0
aF0.0
aF0.0
aa(lp191
F230.64495158888582
aF345.7373717264363
aF0.0
aF0.0
aF0.0
aF0.0
aF0.0
aa(lp192
F228.8058586522577
aF346.21178933037356
aF0.0
aF0.0
aF0.0
aF0.0
aF0.0
aa(lp193
F225.97464714860962
aF347.2003092809288
aF0.0
aF0.0
aF0.0
aF0.0
aF0.0
aa(lp194
F223.14343564496141
aF348.1889291930525
aF0.0
aF0.0
aF0.0
aF0.0
aF0.0
aa(lp195
F220.3741003521934
aF349.13946374759087
aF0.0
aF0.0
aF0.0
aF0.0
aF0.0
aa(lp196
F217.53769084698513
aF350.1130894244448
aF0.0
aF0.0
aF0.0
aF0.0
aF0.0
aa(lp197
F215.6622118994356
aF350.5203328543732
aF0.0
aF0.0
aF0.0
aF0.0
aF0.0
aa(lp198
F212.73163859673275
aF351.156588237656
aF0.0
aF0.0
aF0.0
aF0.0
aF0.0
aa(lp199
F210.66123459067546
aF351.56553101424834
aF0.0
aF0.0
aF0.0
aF0.0
aF0.0
aa(lp200
F209.10913131711175
aF351.9922669500275
aF0.0
aF0.0
aF0.0
aF0.0
aF0.0
aa(lp201
F206.21754302611055
aF352.7873612656021
aF0.0
aF0.0
aF0.0
aF0.0
aF0.0
aa(lp202
F203.28267137596367
aF353.5657619992428
aF0.0
aF0.0
aF0.0
aF0.0
aF0.0
aa(lp203
F200.38408577516975
aF354.3344664607425
aF0.0
aF0.0
aF0.0
aF0.0
aF0.0
aa(lp204
F197.9858078245457
aF354.981817578125
aF0.0
aF0.0
aF0.0
aF0.0
aF0.0
aa(lp205
F195.02454632032396
aF355.94944556087097
aF0.0
aF0.0
aF0.0
aF0.0
aF0.0
aa(lp206
F193.99704135806724
aF356.2995109736371
aF0.0
aF0.0
aF0.0
aF0.0
aF0.0
aa(lp207
F191.1584326983526
aF357.2667391101092
aF0.0
aF0.0
aF0.0
aF0.0
aF0.0
aa(lp208
F188.31992400020653
aF358.2338672850129
aF0.0
aF0.0
aF0.0
aF0.0
aF0.0
aa(lp209
F186.102376565368
aF359.05225264603985
aF0.0
aF0.0
aF0.0
aF0.0
aF0.0
aa(lp210
F183.2889582209067
aF360.09055345769093
aF0.0
aF0.0
aF0.0
aF0.0
aF0.0
aa(lp211
F181.6754785443053
aF360.7731910087418
aF0.0
aF0.0
aF0.0
aF0.0
aF0.0
aa(lp212
F178.91374033074067
aF361.9418417056718
aF0.0
aF0.0
aF0.0
aF0.0
aF0.0
aa(lp213
F178.2580924031755
aF362.2413265647944
aF0.0
aF0.0
aF0.0
aF0.0
aF0.0
aa(lp214
F175.53034112288913
aF363.4873475157168
aF0.0
aF0.0
aF0.0
aF0.0
aF0.0
aa(lp215
F175.34511233652256
aF363.58101150536896
aF0.0
aF0.0
aF0.0
aF0.0
aF0.0
aa(lp216
F172.66874130242752
aF364.93379141141247
aF0.0
aF0.0
aF0.0
aF0.0
aF0.0
aa(lp217
F172.25120183094714
aF365.2155830729167
aF0.0
aF0.0
aF0.0
aF0.0
aF0.0
aa(lp218
F169.76565743105272
aF366.8933380380415
aF0.0
aF0.0
aF0.0
aF0.0
aF0.0
aa(lp219
F167.61818305570853
aF368.62597190425384
aF0.0
aF0.0
aF0.0
aF0.0
aF0.0
aa(lp220
F165.6287479201083
aF370.13988985866376
aF0.0
aF0.0
aF0.0
aF0.0
aF0.0
aa(lp221
F163.51516051647394
aF371.34742560572687
aF0.0
aF0.0
aF0.0
aF0.0
aF0.0
aa(lp222
F161.57450662628492
aF372.2490789532856
aF0.0
aF0.0
aF0.0
aF0.0
aF0.0
aa(lp223
F160.12046565138587
aF372.8468491327093
aF0.0
aF0.0
aF0.0
aF0.0
aF0.0
aa(lp224
F158.92062694509457
aF373.0648653135325
aF0.0
aF0.0
aF0.0
aF0.0
aF0.0
aa(lp225
F157.042149150491
aF373.22710293915196
aF0.0
aF0.0
aF0.0
aF0.0
aF0.0
aa(lp226
F155.85090713908772
aF373.00448852617933
aF0.0
aF0.0
aF0.0
aF0.0
aF0.0
aa(lp227
F154.64776970103708
aF372.64522664911436
aF0.0
aF0.0
aF0.0
aF0.0
aF0.0
aa(lp228
F140.91085103937226
aF363.63619029116194
aF0.0
aF0.0
aF0.0
aF0.0
aF0.0
aaa(lp229
(lp230
F262.00409823305307
aF277.8961051848702
aF0.0
aF0.0
aF0.0
aF0.0
aF0.0
aa(lp231
F260.53094591759475
aF279.6513238637096
aF0.0
aF0.0
aF0.0
aF0.0
aF0.0
aa(lp232
F259.985623271894
aF280.92976250787603
aF0.0
aF0.0
aF0.0
aF0.0
aF0.0
aa(lp233
F258.73471038659784
aF283.17753526290227
aF0.0
aF0.0
aF0.0
aF0.0
aF0.0
aa(lp234
F258.10194881521113
aF285.459773721688
aF0.0
aF0.0
aF0.0
aF0.0
aF0.0
aa(lp235
F258.4812269514474
aF287.5984160008539
aF0.0
aF0.0
aF0.0
aF0.0
aF0.0
aa(lp236
F258.760081034355
aF289.1707954091219
aF0.0
aF0.0
aF0.0
aF0.0
aF0.0
aa(lp237
F259.029187925169
aF290.3246509719627
aF0.0
aF0.0
aF0.0
aF0.0
aF0.0
aa(lp238
F259.4892071391644
aF291.6568577500121
aF0.0
aF0.0
aF0.0
aF0.0
aF0.0
aa(lp239
F260.025207199024
aF293.7616966128928
aF0.0
aF0.0
aF0.0
aF0.0
aF0.0
aa(lp240
F260.6784285473753
aF296.32685617730266
aF0.0
aF0.0
aF0.0
aF0.0
aF0.0
aa(lp241
F261.11200664393175
aF298.6639405950529
aF0.0
aF0.0
aF0.0
aF0.0
aF0.0
aa(lp242
F261.47025418803804
aF300.8062060781349
aF0.0
aF0.0
aF0.0
aF0.0
aF0.0
aa(lp243
F261.8466553683666
aF303.0570275273672
aF0.0
aF0.0
aF0.0
aF0.0
aF0.0
aa(lp244
F261.9187379019389
aF305.22784461114384
aF0.0
aF0.0
aF0.0
aF0.0
aF0.0
aa(lp245
F264.3097942838639
aF307.0822148157782
aF0.0
aF0.0
aF0.0
aF0.0
aF0.0
aaa(lp246
(lp247
F296.9066479760601
aF393.60623441270116
aF0.0
aF0.0
aF0.0
aF0.0
aF0.0
aa(lp248
F298.97465729129715
aF395.2179526136812
aF0.0
aF0.0
aF0.0
aF0.0
aF0.0
aa(lp249
F299.464777363107
aF395.55709126497374
aF0.0
aF0.0
aF0.0
aF0.0
aF0.0
aa(lp250
F299.5306159515105
aF395.62243800855236
aF0.0
aF0.0
aF0.0
aF0.0
aF0.0
aa(lp251
F301.12928140903927
aF397.0927820015578
aF0.0
aF0.0
aF0.0
aF0.0
aF0.0
aa(lp252
F303.10714541386716
aF398.9118870837279
aF0.0
aF0.0
aF0.0
aF0.0
aF0.0
aa(lp253
F304.5559801654104
aF400.5300714260026
aF0.0
aF0.0
aF0.0
aF0.0
aF0.0
aa(lp254
F306.9028670420308
aF402.9201860134163
aF0.0
aF0.0
aF0.0
aF0.0
aF0.0
aa(lp255
F308.46289212601044
aF404.43146508765005
aF0.0
aF0.0
aF0.0
aF0.0
aF0.0
aa(lp256
F309.27583872285686
aF405.219009591197
aF0.0
aF0.0
aF0.0
aF0.0
aF0.0
aa(lp257
F310.49447481333954
aF407.6708079303728
aF0.0
aF0.0
aF0.0
aF0.0
aF0.0
aa(lp258
F311.46098870977926
aF409.6159283870159
aF0.0
aF0.0
aF0.0
aF0.0
aF0.0
aa(lp259
F312.427502606219
aF411.561048843659
aF0.0
aF0.0
aF0.0
aF0.0
aF0.0
aa(lp260
F313.2116150510243
aF413.13908425765305
aF0.0
aF0.0
aF0.0
aF0.0
aF0.0
aa(lp261
F313.5075965775238
aF414.55454799606963
aF0.0
aF0.0
aF0.0
aF0.0
aF0.0
aa(lp262
F314.049403888288
aF416.6578994980457
aF0.0
aF0.0
aF0.0
aF0.0
aF0.0
aa(lp263
F314.59121119905217
aF418.7612510000218
aF0.0
aF0.0
aF0.0
aF0.0
aF0.0
aa(lp264
F315.15606866034733
aF420.9540855484184
aF0.0
aF0.0
aF0.0
aF0.0
aF0.0
aa(lp265
F315.9295209103816
aF423.96762674852044
aF0.0
aF0.0
aF0.0
aF0.0
aF0.0
aa(lp266
F316.5910461465448
aF426.0364493761959
aF0.0
aF0.0
aF0.0
aF0.0
aF0.0
aa(lp267
F317.25257138270797
aF428.10527200387133
aF0.0
aF0.0
aF0.0
aF0.0
aF0.0
aa(lp268
F317.8257745480073
aF429.89788037888127
aF0.0
aF0.0
aF0.0
aF0.0
aF0.0
aa(lp269
F318.3833694438456
aF432.2725449879356
aF0.0
aF0.0
aF0.0
aF0.0
aF0.0
aa(lp270
F318.9331163464538
aF434.373835316742
aF0.0
aF0.0
aF0.0
aF0.0
aF0.0
aa(lp271
F319.482863249062
aF436.47512564554836
aF0.0
aF0.0
aF0.0
aF0.0
aF0.0
aa(lp272
F319.95955123563084
aF438.29716384400496
aF0.0
aF0.0
aF0.0
aF0.0
aF0.0
aa(lp273
F320.29986652457785
aF440.44235106356683
aF0.0
aF0.0
aF0.0
aF0.0
aF0.0
aa(lp274
F320.64018181352486
aF442.5875382831287
aF0.0
aF0.0
aF0.0
aF0.0
aF0.0
aa(lp275
F321.01845330414096
aF444.97198351244845
aF0.0
aF0.0
aF0.0
aF0.0
aF0.0
aaa(lp276
(lp277
F356.8117451123119
aF483.073571025491
aF0.0
aF0.0
aF0.0
aF0.0
aF0.0
aa(lp278
F354.3751818809655
aF485.0894959767346
aF0.0
aF0.0
aF0.0
aF0.0
aF0.0
aa(lp279
F352.31117541529005
aF484.6354705327644
aF0.0
aF0.0
aF0.0
aF0.0
aF0.0
aa(lp280
F349.38230145925115
aF483.99121822400423
aF0.0
aF0.0
aF0.0
aF0.0
aF0.0
aa(lp281
F348.3158114852928
aF483.7112258707324
aF0.0
aF0.0
aF0.0
aF0.0
aF0.0
aa(lp282
F345.5881601665749
aF482.9951011942456
aF0.0
aF0.0
aF0.0
aF0.0
aF0.0
aa(lp283
F343.1306050058508
aF482.26768086052226
aF0.0
aF0.0
aF0.0
aF0.0
aF0.0
aa(lp284
F341.7225463524458
aF481.82725018986326
aF0.0
aF0.0
aF0.0
aF0.0
aF0.0
aa(lp285
F340.5922808978065
aF481.3383381584985
aF0.0
aF0.0
aF0.0
aF0.0
aF0.0
aa(lp286
F340.1715426561353
aF481.1499106019411
aF0.0
aF0.0
aF0.0
aF0.0
aF0.0
aa(lp287
F337.434794834687
aF479.92388196471177
aF0.0
aF0.0
aF0.0
aF0.0
aF0.0
aa(lp288
F334.6980470132388
aF478.69785332748256
aF0.0
aF0.0
aF0.0
aF0.0
aF0.0
aa(lp289
F331.96119923022206
aF477.4719246518218
aF0.0
aF0.0
aF0.0
aF0.0
aF0.0
aa(lp290
F328.5310180083288
aF475.74298936364266
aF0.0
aF0.0
aF0.0
aF0.0
aF0.0
aa(lp291
F328.1586611657948
aF475.440705580603
aF0.0
aF0.0
aF0.0
aF0.0
aF0.0
aa(lp292
F325.83085612093885
aF473.5500324746466
aF0.0
aF0.0
aF0.0
aF0.0
aF0.0
aa(lp293
F323.503051076083
aF471.65945933025887
aF0.0
aF0.0
aF0.0
aF0.0
aF0.0
aa(lp294
F323.4715631820164
aF471.6339691303001
aF0.0
aF0.0
aF0.0
aF0.0
aF0.0
aa(lp295
F322.86409673045154
aF471.14065878992295
aF0.0
aF0.0
aF0.0
aF0.0
aF0.0
aa(lp296
F320.5362916855957
aF469.2500856455351
aF0.0
aF0.0
aF0.0
aF0.0
aF0.0
aa(lp297
F318.2084866407397
aF467.3594125395787
aF0.0
aF0.0
aF0.0
aF0.0
aF0.0
aa(lp298
F314.39275364927494
aF463.78888527555984
aF0.0
aF0.0
aF0.0
aF0.0
aF0.0
aa(lp299
F312.39662108858755
aF462.16241059505785
aF0.0
aF0.0
aF0.0
aF0.0
aF0.0
aa(lp300
F310.07171492921714
aF460.2681388726367
aF0.0
aF0.0
aF0.0
aF0.0
aF0.0
aa(lp301
F307.62184410968706
aF457.98933718405436
aF0.0
aF0.0
aF0.0
aF0.0
aF0.0
aa(lp302
F306.0332188818048
aF456.5081509742216
aF0.0
aF0.0
aF0.0
aF0.0
aF0.0
aa(lp303
F304.4445936539226
aF455.0269647643889
aF0.0
aF0.0
aF0.0
aF0.0
aF0.0
aa(lp304
F302.85596842604036
aF453.54577855455614
aF0.0
aF0.0
aF0.0
aF0.0
aF0.0
aa(lp305
F301.26734319815813
aF452.0645923447234
aF0.0
aF0.0
aF0.0
aF0.0
aF0.0
aa(lp306
F300.25442277875635
aF451.1201759206709
aF0.0
aF0.0
aF0.0
aF0.0
aF0.0
aa(lp307
F298.36401660921643
aF449.58304961528705
aF0.0
aF0.0
aF0.0
aF0.0
aF0.0
aa(lp308
F297.21560253763596
aF447.7394694507543
aF0.0
aF0.0
aF0.0
aF0.0
aF0.0
aa(lp309
F296.5586027732983
aF446.68476996246886
aF0.0
aF0.0
aF0.0
aF0.0
aF0.0
aa(lp310
F295.51140343123876
aF444.78187315999827
aF0.0
aF0.0
aF0.0
aF0.0
aF0.0
aa(lp311
F294.46420408917925
aF442.8789763575277
aF0.0
aF0.0
aF0.0
aF0.0
aF0.0
aa(lp312
F292.9187137011977
aF440.0706202027625
aF0.0
aF0.0
aF0.0
aF0.0
aF0.0
aa(lp313
F292.6141782598529
aF438.9631984590354
aF0.0
aF0.0
aF0.0
aF0.0
aF0.0
aa(lp314
F292.0289614444236
aF436.87150919391945
aF0.0
aF0.0
aF0.0
aF0.0
aF0.0
aa(lp315
F291.46659937460817
aF434.86150764658095
aF0.0
aF0.0
aF0.0
aF0.0
aF0.0
aa(lp316
F290.94929431537884
aF433.42402693419825
aF0.0
aF0.0
aF0.0
aF0.0
aF0.0
aa(lp317
F290.189740764995
aF430.4003067865988
aF0.0
aF0.0
aF0.0
aF0.0
aF0.0
aa(lp318
F289.73496245516765
aF428.27643781894255
aF0.0
aF0.0
aF0.0
aF0.0
aF0.0
aa(lp319
F289.2801841453403
aF426.15256885128633
aF0.0
aF0.0
aF0.0
aF0.0
aF0.0
aa(lp320
F288.91438141262523
aF424.44422644464805
aF0.0
aF0.0
aF0.0
aF0.0
aF0.0
aa(lp321
F288.4249846338179
aF422.3117425329525
aF0.0
aF0.0
aF0.0
aF0.0
aF0.0
aa(lp322
F288.047495039243
aF419.5646431365619
aF0.0
aF0.0
aF0.0
aF0.0
aF0.0
aa(lp323
F287.84801721027435
aF418.88418197990427
aF0.0
aF0.0
aF0.0
aF0.0
aF0.0
aa(lp324
F287.55691080388084
aF416.7317647891582
aF0.0
aF0.0
aF0.0
aF0.0
aF0.0
aa(lp325
F287.29399152859
aF414.78776096277227
aF0.0
aF0.0
aF0.0
aF0.0
aF0.0
aa(lp326
F287.1727685388375
aF411.63804121377746
aF0.0
aF0.0
aF0.0
aF0.0
aF0.0
aa(lp327
F287.1737604454722
aF409.4660279267592
aF0.0
aF0.0
aF0.0
aF0.0
aF0.0
aa(lp328
F287.17458979839006
aF407.6499643033316
aF0.0
aF0.0
aF0.0
aF0.0
aF0.0
aa(lp329
F289.3557062313422
aF403.88337251046664
aF0.0
aF0.0
aF0.0
aF0.0
aF0.0
aa(lp330
F289.5631679819975
aF402.14714669230966
aF0.0
aF0.0
aF0.0
aF0.0
aF0.0
aa(lp331
F285.57033480577735
aF391.60373780114264
aF0.0
aF0.0
aF0.0
aF0.0
aF0.0
aaa(lp332
(lp333
F299.3476135912216
aF435.69199754276866
aF0.0
aF0.0
aF0.0
aF0.0
aF0.0
aa(lp334
F299.90742189203297
aF434.02248688091646
aF0.0
aF0.0
aF0.0
aF0.0
aF0.0
aa(lp335
F299.5961770851542
aF431.87288938997693
aF0.0
aF0.0
aF0.0
aF0.0
aF0.0
aa(lp336
F299.2849322782754
aF429.7232918990374
aF0.0
aF0.0
aF0.0
aF0.0
aF0.0
aa(lp337
F298.97026073038313
aF427.55002778387797
aF0.0
aF0.0
aF0.0
aF0.0
aF0.0
aa(lp338
F299.0142777668466
aF425.3784603307779
aF0.0
aF0.0
aF0.0
aF0.0
aF0.0
aa(lp339
F299.03978340370367
aF424.12014729292844
aF0.0
aF0.0
aF0.0
aF0.0
aF0.0
aa(lp340
F298.7191370429116
aF421.97193207694716
aF0.0
aF0.0
aF0.0
aF0.0
aF0.0
aa(lp341
F298.2703468339138
aF418.96519919723846
aF0.0
aF0.0
aF0.0
aF0.0
aF0.0
aa(lp342
F298.04762798754183
aF416.2147931209676
aF0.0
aF0.0
aF0.0
aF0.0
aF0.0
aa(lp343
F297.6909825485538
aF414.0722603362216
aF0.0
aF0.0
aF0.0
aF0.0
aF0.0
aa(lp344
F297.33459154448366
aF411.9312560587649
aF0.0
aF0.0
aF0.0
aF0.0
aF0.0
aa(lp345
F296.9878905745576
aF409.7784190374641
aF0.0
aF0.0
aF0.0
aF0.0
aF0.0
aa(lp346
F296.7750719169507
aF408.024254051711
aF0.0
aF0.0
aF0.0
aF0.0
aF0.0
aa(lp347
F296.58535958030916
aF405.86054151715643
aF0.0
aF0.0
aF0.0
aF0.0
aF0.0
aa(lp348
F296.4653404002795
aF404.4916953534628
aF0.0
aF0.0
aF0.0
aF0.0
aF0.0
aa(lp349
F296.2827106201321
aF402.32737350441494
aF0.0
aF0.0
aF0.0
aF0.0
aF0.0
aa(lp350
F296.1042079793266
aF400.2119618486799
aF0.0
aF0.0
aF0.0
aF0.0
aF0.0
aa(lp351
F295.8297309684355
aF399.1895619128827
aF0.0
aF0.0
aF0.0
aF0.0
aF0.0
aa(lp352
F294.8918712147626
aF397.2304647265994
aF0.0
aF0.0
aF0.0
aF0.0
aF0.0
aa(lp353
F294.27715497798005
aF395.94638270353875
aF0.0
aF0.0
aF0.0
aF0.0
aF0.0
aa(lp354
F292.1110845455106
aF393.65112368505805
aF0.0
aF0.0
aF0.0
aF0.0
aF0.0
aa(lp355
F290.1497229436952
aF391.62092221583816
aF0.0
aF0.0
aF0.0
aF0.0
aF0.0
aa(lp356
F288.54192743191464
aF390.16056736335855
aF0.0
aF0.0
aF0.0
aF0.0
aF0.0
aa(lp357
F286.93413192013406
aF388.70021251087894
aF0.0
aF0.0
aF0.0
aF0.0
aF0.0
aa(lp358
F282.1845365202827
aF386.22000764672816
aF0.0
aF0.0
aF0.0
aF0.0
aF0.0
aaa(lp359
(lp360
F523.0770862746857
aF410.3554900288501
aF0.0
aF0.0
aF0.0
aF0.0
aF0.0
aa(lp361
F523.097027121865
aF408.18356805385275
aF0.0
aF0.0
aF0.0
aF0.0
aF0.0
aa(lp362
F523.1169679690444
aF406.0116460788554
aF0.0
aF0.0
aF0.0
aF0.0
aF0.0
aa(lp363
F523.1369088162237
aF403.83972410385803
aF0.0
aF0.0
aF0.0
aF0.0
aF0.0
aa(lp364
F523.156849663403
aF401.66780212886067
aF0.0
aF0.0
aF0.0
aF0.0
aF0.0
aa(lp365
F523.1696806504519
aF400.27027360450796
aF0.0
aF0.0
aF0.0
aF0.0
aF0.0
aa(lp366
F523.2896856109223
aF398.10157779542703
aF0.0
aF0.0
aF0.0
aF0.0
aF0.0
aa(lp367
F523.4096905713927
aF395.9328819863461
aF0.0
aF0.0
aF0.0
aF0.0
aF0.0
aa(lp368
F523.5660249824741
aF393.10765058925887
aF0.0
aF0.0
aF0.0
aF0.0
aF0.0
aa(lp369
F523.4538876139651
aF390.93853373822327
aF0.0
aF0.0
aF0.0
aF0.0
aF0.0
aa(lp370
F524.4187461496193
aF388.0125884010673
aF0.0
aF0.0
aF0.0
aF0.0
aF0.0
aa(lp371
F524.4154208619958
aF385.8405774330184
aF0.0
aF0.0
aF0.0
aF0.0
aF0.0
aa(lp372
F524.4120955743723
aF383.66856646496944
aF0.0
aF0.0
aF0.0
aF0.0
aF0.0
aa(lp373
F524.4087702867488
aF381.4965554969205
aF0.0
aF0.0
aF0.0
aF0.0
aF0.0
aa(lp374
F524.4054449991253
aF379.32454452887157
aF0.0
aF0.0
aF0.0
aF0.0
aF0.0
aa(lp375
F524.4021197115018
aF377.15253356082263
aF0.0
aF0.0
aF0.0
aF0.0
aF0.0
aa(lp376
F524.3987944238783
aF374.9805225927737
aF0.0
aF0.0
aF0.0
aF0.0
aF0.0
aa(lp377
F524.394612967812
aF372.24927962502994
aF0.0
aF0.0
aF0.0
aF0.0
aF0.0
aa(lp378
F524.1696405326267
aF370.0889486072761
aF0.0
aF0.0
aF0.0
aF0.0
aF0.0
aa(lp379
F523.9446680974413
aF367.9286175895223
aF0.0
aF0.0
aF0.0
aF0.0
aF0.0
aa(lp380
F523.719695662256
aF365.76828657176844
aF0.0
aF0.0
aF0.0
aF0.0
aF0.0
aa(lp381
F523.4947232270706
aF363.6079555540146
aF0.0
aF0.0
aF0.0
aF0.0
aF0.0
aa(lp382
F523.2697507918853
aF361.4476245362608
aF0.0
aF0.0
aF0.0
aF0.0
aF0.0
aa(lp383
F523.0447783566999
aF359.28729351850694
aF0.0
aF0.0
aF0.0
aF0.0
aF0.0
aa(lp384
F522.8198059215146
aF357.1269625007531
aF0.0
aF0.0
aF0.0
aF0.0
aF0.0
aa(lp385
F522.5406461103458
aF354.44628920635364
aF0.0
aF0.0
aF0.0
aF0.0
aF0.0
aa(lp386
F522.4917223048539
aF354.132297137409
aF0.0
aF0.0
aF0.0
aF0.0
aF0.0
aa(lp387
F522.124482388471
aF351.9915548486975
aF0.0
aF0.0
aF0.0
aF0.0
aF0.0
aa(lp388
F521.7572424720883
aF349.85081255998597
aF0.0
aF0.0
aF0.0
aF0.0
aF0.0
aa(lp389
F521.3900025557055
aF347.71007027127445
aF0.0
aF0.0
aF0.0
aF0.0
aF0.0
aa(lp390
F521.0227626393227
aF345.5693279825629
aF0.0
aF0.0
aF0.0
aF0.0
aF0.0
aa(lp391
F520.6555227229398
aF343.4285856938514
aF0.0
aF0.0
aF0.0
aF0.0
aF0.0
aa(lp392
F520.288282806557
aF341.2878434051399
aF0.0
aF0.0
aF0.0
aF0.0
aF0.0
aa(lp393
F519.9210428901742
aF339.14710111642836
aF0.0
aF0.0
aF0.0
aF0.0
aF0.0
aa(lp394
F519.7245340395361
aF338.0015970796918
aF0.0
aF0.0
aF0.0
aF0.0
aF0.0
aa(lp395
F519.5239814122813
aF335.8388623880193
aF0.0
aF0.0
aF0.0
aF0.0
aF0.0
aa(lp396
F519.3234287850264
aF333.67612769634684
aF0.0
aF0.0
aF0.0
aF0.0
aF0.0
aa(lp397
F519.2192321104674
aF332.5524836638043
aF0.0
aF0.0
aF0.0
aF0.0
aF0.0
aa(lp398
F518.8788260921172
aF330.4073108396399
aF0.0
aF0.0
aF0.0
aF0.0
aF0.0
aa(lp399
F518.5384200737669
aF328.26213801547544
aF0.0
aF0.0
aF0.0
aF0.0
aF0.0
aa(lp400
F518.1980140554167
aF326.116965191311
aF0.0
aF0.0
aF0.0
aF0.0
aF0.0
aa(lp401
F517.8576080370665
aF323.9717923671466
aF0.0
aF0.0
aF0.0
aF0.0
aF0.0
aa(lp402
F517.5246772741942
aF321.8737271557775
aF0.0
aF0.0
aF0.0
aF0.0
aF0.0
aa(lp403
F517.4754056568438
aF319.70227257172877
aF0.0
aF0.0
aF0.0
aF0.0
aF0.0
aa(lp404
F517.4261340394934
aF317.53081798768005
aF0.0
aF0.0
aF0.0
aF0.0
aF0.0
aa(lp405
F517.376862422143
aF315.35936340363133
aF0.0
aF0.0
aF0.0
aF0.0
aF0.0
aa(lp406
F517.3281878807659
aF313.2142226170364
aF0.0
aF0.0
aF0.0
aF0.0
aF0.0
aaa(lp407
(lp408
F572.0466305686288
aF339.86906716882083
aF0.0
aF0.0
aF0.0
aF0.0
aF0.0
aa(lp409
F572.062592203695
aF341.0998726992282
aF0.0
aF0.0
aF0.0
aF0.0
aF0.0
aa(lp410
F572.47181676121
aF343.2329873150867
aF0.0
aF0.0
aF0.0
aF0.0
aF0.0
aa(lp411
F572.881041318725
aF345.3661019309452
aF0.0
aF0.0
aF0.0
aF0.0
aF0.0
aa(lp412
F573.29026587624
aF347.4992165468037
aF0.0
aF0.0
aF0.0
aF0.0
aF0.0
aa(lp413
F573.699490433755
aF349.63233116266224
aF0.0
aF0.0
aF0.0
aF0.0
aF0.0
aa(lp414
F574.1087149912701
aF351.76544577852076
aF0.0
aF0.0
aF0.0
aF0.0
aF0.0
aa(lp415
F574.5179395487851
aF353.8985603943793
aF0.0
aF0.0
aF0.0
aF0.0
aF0.0
aa(lp416
F574.9271641063001
aF356.0316750102378
aF0.0
aF0.0
aF0.0
aF0.0
aF0.0
aa(lp417
F575.483404908571
aF358.9311231578912
aF0.0
aF0.0
aF0.0
aF0.0
aF0.0
aa(lp418
F575.6656852255504
aF360.5094004854818
aF0.0
aF0.0
aF0.0
aF0.0
aF0.0
aa(lp419
F575.8518852226458
aF362.6734181064693
aF0.0
aF0.0
aF0.0
aF0.0
aF0.0
aa(lp420
F576.0380852197412
aF364.83743572745675
aF0.0
aF0.0
aF0.0
aF0.0
aF0.0
aa(lp421
F576.2242852168366
aF367.0014533484442
aF0.0
aF0.0
aF0.0
aF0.0
aF0.0
aa(lp422
F576.410485213932
aF369.1654709694317
aF0.0
aF0.0
aF0.0
aF0.0
aF0.0
aa(lp423
F576.5966852110274
aF371.32948859041915
aF0.0
aF0.0
aF0.0
aF0.0
aF0.0
aa(lp424
F576.7828852081228
aF373.4935062114066
aF0.0
aF0.0
aF0.0
aF0.0
aF0.0
aa(lp425
F576.9690852052182
aF375.6575238323941
aF0.0
aF0.0
aF0.0
aF0.0
aF0.0
aa(lp426
F577.0984681010773
aF377.16121271994155
aF0.0
aF0.0
aF0.0
aF0.0
aF0.0
aa(lp427
F576.9914008997005
aF379.33058574393993
aF0.0
aF0.0
aF0.0
aF0.0
aF0.0
aa(lp428
F576.8843336983236
aF381.4999587679383
aF0.0
aF0.0
aF0.0
aF0.0
aF0.0
aa(lp429
F576.7449587202052
aF384.3239451415635
aF0.0
aF0.0
aF0.0
aF0.0
aF0.0
aa(lp430
F576.892783132641
aF386.4909224478477
aF0.0
aF0.0
aF0.0
aF0.0
aF0.0
aa(lp431
F577.0406075450767
aF388.6578997541319
aF0.0
aF0.0
aF0.0
aF0.0
aF0.0
aa(lp432
F577.1879984451667
aF390.81852214650587
aF0.0
aF0.0
aF0.0
aF0.0
aF0.0
aa(lp433
F576.5732179235976
aF393.0241336491108
aF0.0
aF0.0
aF0.0
aF0.0
aF0.0
aa(lp434
F576.2255974340069
aF395.1681492036438
aF0.0
aF0.0
aF0.0
aF0.0
aF0.0
aa(lp435
F575.8779769444162
aF397.3121647581768
aF0.0
aF0.0
aF0.0
aF0.0
aF0.0
aa(lp436
F575.5303564548256
aF399.45618031270976
aF0.0
aF0.0
aF0.0
aF0.0
aF0.0
aa(lp437
F575.1827359652349
aF401.60019586724275
aF0.0
aF0.0
aF0.0
aF0.0
aF0.0
aa(lp438
F574.8351154756442
aF403.74421142177573
aF0.0
aF0.0
aF0.0
aF0.0
aF0.0
aa(lp439
F574.5232281743162
aF405.66783573430115
aF0.0
aF0.0
aF0.0
aF0.0
aF0.0
aa(lp440
F574.5264105698856
aF406.805566038547
aF0.0
aF0.0
aF0.0
aF0.0
aF0.0
aa(lp441
F573.6295796017888
aF408.78378162779035
aF0.0
aF0.0
aF0.0
aF0.0
aF0.0
aa(lp442
F572.732748633692
aF410.7619972170337
aF0.0
aF0.0
aF0.0
aF0.0
aF0.0
aa(lp443
F571.8359176655953
aF412.74021280627704
aF0.0
aF0.0
aF0.0
aF0.0
aF0.0
aa(lp444
F570.9390866974985
aF414.7184283955204
aF0.0
aF0.0
aF0.0
aF0.0
aF0.0
aa(lp445
F570.0422557294017
aF416.69664398476374
aF0.0
aF0.0
aF0.0
aF0.0
aF0.0
aa(lp446
F569.3947852205562
aF418.12482421017694
aF0.0
aF0.0
aF0.0
aF0.0
aF0.0
aa(lp447
F567.650925934979
aF420.29301252108047
aF0.0
aF0.0
aF0.0
aF0.0
aF0.0
aa(lp448
F566.2294593183012
aF421.93529001302056
aF0.0
aF0.0
aF0.0
aF0.0
aF0.0
aa(lp449
F564.8079927016234
aF423.57756750496065
aF0.0
aF0.0
aF0.0
aF0.0
aF0.0
aa(lp450
F563.3730383913052
aF425.23542787125314
aF0.0
aF0.0
aF0.0
aF0.0
aF0.0
aa(lp451
F561.6155173138538
aF426.33846740997745
aF0.0
aF0.0
aF0.0
aF0.0
aF0.0
aa(lp452
F559.4472296145127
aF427.42328244875193
aF0.0
aF0.0
aF0.0
aF0.0
aF0.0
aa(lp453
F558.5795762863875
aF427.91549449135834
aF0.0
aF0.0
aF0.0
aF0.0
aF0.0
aa(lp454
F556.6129333624393
aF428.83742632861487
aF0.0
aF0.0
aF0.0
aF0.0
aF0.0
aa(lp455
F555.168966086199
aF429.51433589247705
aF0.0
aF0.0
aF0.0
aF0.0
aF0.0
aaa(lp456
(lp457
F375.46837056199666
aF420.9712946818173
aF0.0
aF0.0
aF0.0
aF0.0
aF0.0
aa(lp458
F375.11867969079697
aF419.67504142567503
aF0.0
aF0.0
aF0.0
aF0.0
aF0.0
aa(lp459
F374.9309735194871
aF419.14019855000026
aF0.0
aF0.0
aF0.0
aF0.0
aF0.0
aa(lp460
F374.35796464138093
aF417.0451320764787
aF0.0
aF0.0
aF0.0
aF0.0
aF0.0
aa(lp461
F373.78495576327475
aF414.9500656029571
aF0.0
aF0.0
aF0.0
aF0.0
aF0.0
aa(lp462
F373.16241267119125
aF412.6738894207358
aF0.0
aF0.0
aF0.0
aF0.0
aF0.0
aa(lp463
F373.5866521333174
aF410.5437101837612
aF0.0
aF0.0
aF0.0
aF0.0
aF0.0
aa(lp464
F374.0108915954435
aF408.41353094678664
aF0.0
aF0.0
aF0.0
aF0.0
aF0.0
aa(lp465
F374.3366051041297
aF406.7780674518814
aF0.0
aF0.0
aF0.0
aF0.0
aF0.0
aa(lp466
F374.3570975757602
aF404.6061506115145
aF0.0
aF0.0
aF0.0
aF0.0
aF0.0
aa(lp467
F374.37182158500866
aF403.0456105155587
aF0.0
aF0.0
aF0.0
aF0.0
aF0.0
aa(lp468
F374.77351313526884
aF400.91106452136876
aF0.0
aF0.0
aF0.0
aF0.0
aF0.0
aa(lp469
F375.175204685529
aF398.77651852717884
aF0.0
aF0.0
aF0.0
aF0.0
aF0.0
aa(lp470
F375.5768962357892
aF396.6419725329889
aF0.0
aF0.0
aF0.0
aF0.0
aF0.0
aa(lp471
F375.9851093628244
aF394.47277157637393
aF0.0
aF0.0
aF0.0
aF0.0
aF0.0
aa(lp472
F376.3090896073262
aF392.32505662693694
aF0.0
aF0.0
aF0.0
aF0.0
aF0.0
aa(lp473
F376.5029586997873
aF391.03986854779066
aF0.0
aF0.0
aF0.0
aF0.0
aF0.0
aa(lp474
F376.4838503190468
aF388.86793908930264
aF0.0
aF0.0
aF0.0
aF0.0
aF0.0
aa(lp475
F376.46474193830625
aF386.6960096308146
aF0.0
aF0.0
aF0.0
aF0.0
aF0.0
aa(lp476
F376.4456335575657
aF384.5240801723266
aF0.0
aF0.0
aF0.0
aF0.0
aF0.0
aa(lp477
F376.42632311570816
aF382.3291836975021
aF0.0
aF0.0
aF0.0
aF0.0
aF0.0
aaa(lp478
(lp479
F384.9421380012162
aF347.387868291647
aF0.0
aF0.0
aF0.0
aF0.0
aF0.0
aa(lp480
F384.4692275875866
aF348.12519143240104
aF0.0
aF0.0
aF0.0
aF0.0
aF0.0
aa(lp481
F384.8044556296481
aF350.27117951780093
aF0.0
aF0.0
aF0.0
aF0.0
aF0.0
aa(lp482
F385.1396836717096
aF352.4171676032008
aF0.0
aF0.0
aF0.0
aF0.0
aF0.0
aa(lp483
F385.52767584002487
aF354.900929299606
aF0.0
aF0.0
aF0.0
aF0.0
aF0.0
aa(lp484
F385.72682919118785
aF357.06379329107267
aF0.0
aF0.0
aF0.0
aF0.0
aF0.0
aa(lp485
F385.9259825423508
aF359.22665728253935
aF0.0
aF0.0
aF0.0
aF0.0
aF0.0
aa(lp486
F386.14381602476027
aF361.5923929956869
aF0.0
aF0.0
aF0.0
aF0.0
aF0.0
aa(lp487
F386.54600891913776
aF363.726844582998
aF0.0
aF0.0
aF0.0
aF0.0
aF0.0
aa(lp488
F386.7951868497865
aF365.0492404707206
aF0.0
aF0.0
aF0.0
aF0.0
aF0.0
aa(lp489
F387.2437860846801
aF367.1800967075601
aF0.0
aF0.0
aF0.0
aF0.0
aF0.0
aa(lp490
F388.3593592851653
aF369.0437327066817
aF0.0
aF0.0
aF0.0
aF0.0
aF0.0
aa(lp491
F389.7246254215718
aF371.3244966395926
aF0.0
aF0.0
aF0.0
aF0.0
aF0.0
aa(lp492
F391.2543943732988
aF373.93585979649384
aF0.0
aF0.0
aF0.0
aF0.0
aF0.0
aa(lp493
F391.97664330759284
aF375.98427361693484
aF0.0
aF0.0
aF0.0
aF0.0
aF0.0
aa(lp494
F392.6988922418869
aF378.03268743737584
aF0.0
aF0.0
aF0.0
aF0.0
aF0.0
aa(lp495
F393.61383265742535
aF380.62760520475354
aF0.0
aF0.0
aF0.0
aF0.0
aF0.0
aa(lp496
F394.0986474783631
aF382.7448197173294
aF0.0
aF0.0
aF0.0
aF0.0
aF0.0
aa(lp497
F394.58346229930083
aF384.86203422990525
aF0.0
aF0.0
aF0.0
aF0.0
aF0.0
aa(lp498
F395.0682771202386
aF386.9792487424811
aF0.0
aF0.0
aF0.0
aF0.0
aF0.0
aa(lp499
F395.3632930463056
aF388.2676004453066
aF0.0
aF0.0
aF0.0
aF0.0
aF0.0
aa(lp500
F395.8591889667951
aF390.38224697343003
aF0.0
aF0.0
aF0.0
aF0.0
aF0.0
aa(lp501
F396.4636098258321
aF392.9596758617872
aF0.0
aF0.0
aF0.0
aF0.0
aF0.0
aa(lp502
F397.6763798214982
aF394.7125586693613
aF0.0
aF0.0
aF0.0
aF0.0
aF0.0
aa(lp503
F398.18364577207615
aF396.8245065755007
aF0.0
aF0.0
aF0.0
aF0.0
aF0.0
aa(lp504
F398.6909117226541
aF398.93645448164017
aF0.0
aF0.0
aF0.0
aF0.0
aF0.0
aa(lp505
F399.19817767323207
aF401.0484023877796
aF0.0
aF0.0
aF0.0
aF0.0
aF0.0
aa(lp506
F399.70544362381
aF403.16035029391907
aF0.0
aF0.0
aF0.0
aF0.0
aF0.0
aa(lp507
F400.334929485659
aF405.78114781908585
aF0.0
aF0.0
aF0.0
aF0.0
aF0.0
aa(lp508
F400.72773173647244
aF407.9173475041852
aF0.0
aF0.0
aF0.0
aF0.0
aF0.0
aa(lp509
F401.12053398728585
aF410.0535471892846
aF0.0
aF0.0
aF0.0
aF0.0
aF0.0
aa(lp510
F401.61182794765523
aF412.7253801567869
aF0.0
aF0.0
aF0.0
aF0.0
aF0.0
aa(lp511
F402.02789948526424
aF415.4136234731461
aF0.0
aF0.0
aF0.0
aF0.0
aF0.0
aa(lp512
F402.3778243402144
aF415.57639359740443
aF0.0
aF0.0
aF0.0
aF0.0
aF0.0
aa(lp513
F402.6137165519234
aF417.7355595399197
aF0.0
aF0.0
aF0.0
aF0.0
aF0.0
aa(lp514
F402.84960876363243
aF419.8947254824349
aF0.0
aF0.0
aF0.0
aF0.0
aF0.0
aa(lp515
F403.08550097534146
aF422.05389142495017
aF0.0
aF0.0
aF0.0
aF0.0
aF0.0
aa(lp516
F403.3177216665291
aF424.1794512470696
aF0.0
aF0.0
aF0.0
aF0.0
aF0.0
aa(lp517
F403.42893157102844
aF426.3486158466341
aF0.0
aF0.0
aF0.0
aF0.0
aF0.0
aa(lp518
F403.5820088784492
aF429.33440994248014
aF0.0
aF0.0
aF0.0
aF0.0
aF0.0
aa(lp519
F403.74433124907466
aF431.4422570898165
aF0.0
aF0.0
aF0.0
aF0.0
aF0.0
aa(lp520
F404.0321905934518
aF434.6786770764501
aF0.0
aF0.0
aF0.0
aF0.0
aF0.0
aa(lp521
F404.22681576725404
aF439.91056560836546
aF0.0
aF0.0
aF0.0
aF0.0
aF0.0
aa(lp522
F403.96811522806547
aF442.898216966662
aF0.0
aF0.0
aF0.0
aF0.0
aF0.0
aa(lp523
F403.8858468572182
aF443.9667061719898
aF0.0
aF0.0
aF0.0
aF0.0
aF0.0
aa(lp524
F403.65563536504214
aF446.956656646361
aF0.0
aF0.0
aF0.0
aF0.0
aF0.0
aa(lp525
F403.4526134194888
aF450.3696444784784
aF0.0
aF0.0
aF0.0
aF0.0
aF0.0
aa(lp526
F403.57086795498356
aF452.1987412582599
aF0.0
aF0.0
aF0.0
aF0.0
aF0.0
aa(lp527
F403.70161768653634
aF454.2227630965492
aF0.0
aF0.0
aF0.0
aF0.0
aF0.0
aa(lp528
F403.89504332151716
aF457.2154125332691
aF0.0
aF0.0
aF0.0
aF0.0
aF0.0
aa(lp529
F404.1291533148633
aF459.6053936737106
aF0.0
aF0.0
aF0.0
aF0.0
aF0.0
aa(lp530
F404.4214409410563
aF462.5899462233847
aF0.0
aF0.0
aF0.0
aF0.0
aF0.0
aa(lp531
F404.7803029718475
aF465.903272371742
aF0.0
aF0.0
aF0.0
aF0.0
aF0.0
aa(lp532
F405.3763738046073
aF468.84234240776436
aF0.0
aF0.0
aF0.0
aF0.0
aF0.0
aa(lp533
F407.37880394410786
aF474.1982832461454
aF0.0
aF0.0
aF0.0
aF0.0
aF0.0
aaa(lp534
(lp535
F565.5186974739812
aF390.4792595465453
aF0.0
aF0.0
aF0.0
aF0.0
aF0.0
aa(lp536
F564.9955139982662
aF388.3711984104296
aF0.0
aF0.0
aF0.0
aF0.0
aF0.0
aa(lp537
F564.7215899722261
aF387.26747740174415
aF0.0
aF0.0
aF0.0
aF0.0
aF0.0
aa(lp538
F564.5721271679773
aF384.7258713135166
aF0.0
aF0.0
aF0.0
aF0.0
aF0.0
aa(lp539
F564.1577684413854
aF382.5937480646026
aF0.0
aF0.0
aF0.0
aF0.0
aF0.0
aa(lp540
F563.7434097147935
aF380.4616248156886
aF0.0
aF0.0
aF0.0
aF0.0
aF0.0
aa(lp541
F563.3290509882016
aF378.3295015667746
aF0.0
aF0.0
aF0.0
aF0.0
aF0.0
aa(lp542
F563.0969467763997
aF377.1351867028795
aF0.0
aF0.0
aF0.0
aF0.0
aF0.0
aa(lp543
F562.6139700414989
aF375.0175521318529
aF0.0
aF0.0
aF0.0
aF0.0
aF0.0
aa(lp544
F561.978331659792
aF372.23056527616103
aF0.0
aF0.0
aF0.0
aF0.0
aF0.0
aa(lp545
F561.5992880903686
aF370.0918814109436
aF0.0
aF0.0
aF0.0
aF0.0
aF0.0
aa(lp546
F561.2202445209452
aF367.95319754572614
aF0.0
aF0.0
aF0.0
aF0.0
aF0.0
aa(lp547
F560.8412009515218
aF365.8145136805087
aF0.0
aF0.0
aF0.0
aF0.0
aF0.0
aa(lp548
F560.4621573820984
aF363.67582981529125
aF0.0
aF0.0
aF0.0
aF0.0
aF0.0
aa(lp549
F560.1838157163688
aF362.1053379839186
aF0.0
aF0.0
aF0.0
aF0.0
aF0.0
aa(lp550
F559.8458184461228
aF359.9597843145435
aF0.0
aF0.0
aF0.0
aF0.0
aF0.0
aa(lp551
F559.5078211758769
aF357.81423064516844
aF0.0
aF0.0
aF0.0
aF0.0
aF0.0
aa(lp552
F559.3308090106075
aF356.69058517773254
aF0.0
aF0.0
aF0.0
aF0.0
aF0.0
aa(lp553
F559.2065865459907
aF354.52212685852345
aF0.0
aF0.0
aF0.0
aF0.0
aF0.0
aa(lp554
F559.082364081374
aF352.35366853931436
aF0.0
aF0.0
aF0.0
aF0.0
aF0.0
aa(lp555
F558.9354180903538
aF349.78854267673347
aF0.0
aF0.0
aF0.0
aF0.0
aF0.0
aaa(lp556
(lp557
F215.5019722806128
aF183.72952203211864
aF0.0
aF0.0
aF0.0
aF0.0
aF0.0
aa(lp558
F215.41597559527284
aF185.8998324414779
aF0.0
aF0.0
aF0.0
aF0.0
aF0.0
aa(lp559
F215.3299789099329
aF188.0701428508372
aF0.0
aF0.0
aF0.0
aF0.0
aF0.0
aa(lp560
F215.24398222459294
aF190.24045326019646
aF0.0
aF0.0
aF0.0
aF0.0
aF0.0
aa(lp561
F215.19011258004025
aF191.59996903524163
aF0.0
aF0.0
aF0.0
aF0.0
aF0.0
aa(lp562
F215.22837295622975
aF192.67424146052824
aF0.0
aF0.0
aF0.0
aF0.0
aF0.0
aa(lp563
F215.00269496077445
aF194.83449888621385
aF0.0
aF0.0
aF0.0
aF0.0
aF0.0
aa(lp564
F214.77701696531915
aF196.9947563118995
aF0.0
aF0.0
aF0.0
aF0.0
aF0.0
aa(lp565
F214.55133896986385
aF199.15501373758514
aF0.0
aF0.0
aF0.0
aF0.0
aF0.0
aa(lp566
F214.34892598242845
aF201.09257153217786
aF0.0
aF0.0
aF0.0
aF0.0
aF0.0
aa(lp567
F214.33220048404092
aF201.72005963237774
aF0.0
aF0.0
aF0.0
aF0.0
aF0.0
aa(lp568
F214.1700566979163
aF203.88601256249507
aF0.0
aF0.0
aF0.0
aF0.0
aF0.0
aa(lp569
F214.00791291179166
aF206.0519654926124
aF0.0
aF0.0
aF0.0
aF0.0
aF0.0
aa(lp570
F213.84576912566703
aF208.21791842272972
aF0.0
aF0.0
aF0.0
aF0.0
aF0.0
aa(lp571
F213.68299423804586
aF210.39230174767255
aF0.0
aF0.0
aF0.0
aF0.0
aF0.0
aa(lp572
F213.67262407882697
aF211.21516977059443
aF0.0
aF0.0
aF0.0
aF0.0
aF0.0
aa(lp573
F213.68819320386328
aF213.3871274831681
aF0.0
aF0.0
aF0.0
aF0.0
aF0.0
aa(lp574
F213.7037623288996
aF215.55908519574174
aF0.0
aF0.0
aF0.0
aF0.0
aF0.0
aa(lp575
F213.7193314539359
aF217.7310429083154
aF0.0
aF0.0
aF0.0
aF0.0
aF0.0
aa(lp576
F213.7365206579933
aF220.1290083841197
aF0.0
aF0.0
aF0.0
aF0.0
aF0.0
aa(lp577
F213.78488698743826
aF221.22011416705047
aF0.0
aF0.0
aF0.0
aF0.0
aF0.0
aaa(lp578
(lp579
F336.6069413607407
aF467.3212166613518
aF0.0
aF0.0
aF0.0
aF0.0
aF0.0
aa(lp580
F338.9527492193152
aF468.78713754402474
aF0.0
aF0.0
aF0.0
aF0.0
aF0.0
aa(lp581
F340.2336848047101
aF469.87712741066025
aF0.0
aF0.0
aF0.0
aF0.0
aF0.0
aa(lp582
F341.887865776237
aF471.28472394955236
aF0.0
aF0.0
aF0.0
aF0.0
aF0.0
aa(lp583
F343.5420467477639
aF472.69232048844447
aF0.0
aF0.0
aF0.0
aF0.0
aF0.0
aa(lp584
F345.0710238987373
aF473.7971332153288
aF0.0
aF0.0
aF0.0
aF0.0
aF0.0
aa(lp585
F346.18991846410086
aF474.7904775414368
aF0.0
aF0.0
aF0.0
aF0.0
aF0.0
aa(lp586
F347.8141869260395
aF476.2324881746896
aF0.0
aF0.0
aF0.0
aF0.0
aF0.0
aa(lp587
F349.4866603066997
aF477.6090786897637
aF0.0
aF0.0
aF0.0
aF0.0
aF0.0
aa(lp588
F351.16366751813
aF478.989400940426
aF0.0
aF0.0
aF0.0
aF0.0
aF0.0
aa(lp589
F351.8186417311238
aF479.5583810518652
aF0.0
aF0.0
aF0.0
aF0.0
aF0.0
aa(lp590
F355.31961877982747
aF481.693401649688
aF0.0
aF0.0
aF0.0
aF0.0
aF0.0
aa(lp591
F355.6674850380874
aF482.0151779385784
aF0.0
aF0.0
aF0.0
aF0.0
aF0.0
aa(lp592
F356.8117451123119
aF483.073571025491
aF0.0
aF0.0
aF0.0
aF0.0
aF0.0
aa(lp593
F358.86935403760555
aF484.97673932750547
aF0.0
aF0.0
aF0.0
aF0.0
aF0.0
aa(lp594
F359.85837379600315
aF485.8914876405332
aF0.0
aF0.0
aF0.0
aF0.0
aF0.0
aa(lp595
F360.55440619722833
aF486.5353401030195
aF0.0
aF0.0
aF0.0
aF0.0
aF0.0
aa(lp596
F362.6599966753854
aF488.67051920544236
aF0.0
aF0.0
aF0.0
aF0.0
aF0.0
aa(lp597
F364.1546220470815
aF490.18613650651616
aF0.0
aF0.0
aF0.0
aF0.0
aF0.0
aa(lp598
F366.2920003040106
aF492.28952783016706
aF0.0
aF0.0
aF0.0
aF0.0
aF0.0
aa(lp599
F366.81789811570764
aF492.80702887011284
aF0.0
aF0.0
aF0.0
aF0.0
aF0.0
aa(lp600
F370.7124008231232
aF496.1629386466364
aF0.0
aF0.0
aF0.0
aF0.0
aF0.0
aa(lp601
F371.1735235384545
aF496.8966565591731
aF0.0
aF0.0
aF0.0
aF0.0
aF0.0
aa(lp602
F372.2020281163959
aF498.53322735809013
aF0.0
aF0.0
aF0.0
aF0.0
aF0.0
aa(lp603
F373.6134854631287
aF501.8111671112105
aF0.0
aF0.0
aF0.0
aF0.0
aF0.0
aa(lp604
F373.6201828882158
aF502.60246288718344
aF0.0
aF0.0
aF0.0
aF0.0
aF0.0
aa(lp605
F373.6380760089712
aF504.7151506367016
aF0.0
aF0.0
aF0.0
aF0.0
aF0.0
aa(lp606
F373.61568461763494
aF507.71399769066636
aF0.0
aF0.0
aF0.0
aF0.0
aF0.0
aa(lp607
F373.59719172746884
aF510.18544750940714
aF0.0
aF0.0
aF0.0
aF0.0
aF0.0
aa(lp608
F373.62498104350215
aF513.1841946018035
aF0.0
aF0.0
aF0.0
aF0.0
aF0.0
aa(lp609
F373.6528703211041
aF516.1829416941997
aF0.0
aF0.0
aF0.0
aF0.0
aF0.0
aa(lp610
F373.6726627116602
aF518.3145221801578
aF0.0
aF0.0
aF0.0
aF0.0
aF0.0
aa(lp611
F373.8292025278772
aF522.7613125533453
aF0.0
aF0.0
aF0.0
aF0.0
aF0.0
aa(lp612
F373.8003136345907
aF525.7600596457415
aF0.0
aF0.0
aF0.0
aF0.0
aF0.0
aa(lp613
F373.77142474130414
aF528.7587067765694
aF0.0
aF0.0
aF0.0
aF0.0
aF0.0
aa(lp614
F373.75942935308825
aF530.0033282655332
aF0.0
aF0.0
aF0.0
aF0.0
aF0.0
aa(lp615
F373.7450348872293
aF533.0020753579296
aF0.0
aF0.0
aF0.0
aF0.0
aF0.0
aa(lp616
F373.7306404213702
aF536.0009224118943
aF0.0
aF0.0
aF0.0
aF0.0
aF0.0
aa(lp617
F373.7162459555112
aF538.999769465859
aF0.0
aF0.0
aF0.0
aF0.0
aF0.0
aa(lp618
F373.7029510669053
aF541.7601082174651
aF0.0
aF0.0
aF0.0
aF0.0
aF0.0
aa(lp619
F373.6532701673779
aF544.7585554251559
aF0.0
aF0.0
aF0.0
aF0.0
aF0.0
aa(lp620
F373.60368922941905
aF547.7570026328469
aF0.0
aF0.0
aF0.0
aF0.0
aF0.0
aa(lp621
F373.556007561261
aF550.6324971113253
aF0.0
aF0.0
aF0.0
aF0.0
aF0.0
aa(lp622
F373.54951005931076
aF553.63134416529
aF0.0
aF0.0
aF0.0
aF0.0
aF0.0
aa(lp623
F373.542912595792
aF556.6300912576863
aF0.0
aF0.0
aF0.0
aF0.0
aF0.0
aa(lp624
F373.5389141330534
aF558.4280999896752
aF0.0
aF0.0
aF0.0
aF0.0
aF0.0
aa(lp625
F373.4538468382893
aF561.4257475048182
aF0.0
aF0.0
aF0.0
aF0.0
aF0.0
aa(lp626
F373.3687795435252
aF564.4233950199615
aF0.0
aF0.0
aF0.0
aF0.0
aF0.0
aa(lp627
F373.3176991820393
aF566.2201042515602
aF0.0
aF0.0
aF0.0
aF0.0
aF0.0
aa(lp628
F373.225734539051
aF569.2175518435665
aF0.0
aF0.0
aF0.0
aF0.0
aF0.0
aa(lp629
F373.1336699344943
aF572.2149994355726
aF0.0
aF0.0
aF0.0
aF0.0
aF0.0
aa(lp630
F373.05979833539834
aF574.6228736967695
aF0.0
aF0.0
aF0.0
aF0.0
aF0.0
aa(lp631
F372.94454264695753
aF577.619521596228
aF0.0
aF0.0
aF0.0
aF0.0
aF0.0
aa(lp632
F372.8292869585169
aF580.6161694956864
aF0.0
aF0.0
aF0.0
aF0.0
aF0.0
aa(lp633
F372.7615130150973
aF582.3782920245962
aF0.0
aF0.0
aF0.0
aF0.0
aF0.0
aa(lp634
F372.59187823341136
aF585.3723409232746
aF0.0
aF0.0
aF0.0
aF0.0
aF0.0
aa(lp635
F372.42214349015694
aF588.366389821953
aF0.0
aF0.0
aF0.0
aF0.0
aF0.0
aa(lp636
F372.25250870847094
aF591.3604387206315
aF0.0
aF0.0
aF0.0
aF0.0
aF0.0
aa(lp637
F372.15784510313415
aF593.0313962991006
aF0.0
aF0.0
aF0.0
aF0.0
aF0.0
aa(lp638
F371.9412283842695
aF596.0224463507251
aF0.0
aF0.0
aF0.0
aF0.0
aF0.0
aa(lp639
F371.7247116269732
aF599.0134964023495
aF0.0
aF0.0
aF0.0
aF0.0
aF0.0
aa(lp640
F371.5080949081085
aF602.0044464924056
aF0.0
aF0.0
aF0.0
aF0.0
aF0.0
aa(lp641
F371.2914781892438
aF604.99549654403
aF0.0
aF0.0
aF0.0
aF0.0
aF0.0
aa(lp642
F371.07486147037906
aF607.986446634086
aF0.0
aF0.0
aF0.0
aF0.0
aF0.0
aa(lp643
F370.9545077419466
aF609.6495072486463
aF0.0
aF0.0
aF0.0
aF0.0
aF0.0
aa(lp644
F370.730393905447
aF612.6399575308599
aF0.0
aF0.0
aF0.0
aF0.0
aF0.0
aa(lp645
F370.5063800305158
aF615.6304078130735
aF0.0
aF0.0
aF0.0
aF0.0
aF0.0
aa(lp646
F370.28226619401613
aF618.6208580952873
aF0.0
aF0.0
aF0.0
aF0.0
aF0.0
aa(lp647
F370.058252319085
aF621.6114083390695
aF0.0
aF0.0
aF0.0
aF0.0
aF0.0
aa(lp648
F369.8342384441538
aF624.6018586212831
aF0.0
aF0.0
aF0.0
aF0.0
aF0.0
aa(lp649
F369.6101246076542
aF627.5923089034967
aF0.0
aF0.0
aF0.0
aF0.0
aF0.0
aa(lp650
F369.3185367124404
aF631.4193375521982
aF0.0
aF0.0
aF0.0
aF0.0
aF0.0
aa(lp651
F369.0896247206544
aF634.4094879497063
aF0.0
aF0.0
aF0.0
aF0.0
aF0.0
aa(lp652
F368.86081269043683
aF637.3995383856461
aF0.0
aF0.0
aF0.0
aF0.0
aF0.0
aa(lp653
F368.63190069865095
aF640.3896887831544
aF0.0
aF0.0
aF0.0
aF0.0
aF0.0
aa(lp654
F368.4030886684334
aF643.3797392190942
aF0.0
aF0.0
aF0.0
aF0.0
aF0.0
aa(lp655
F368.3321159548229
aF644.3058831509269
aF0.0
aF0.0
aF0.0
aF0.0
aF0.0
aa(lp656
F367.9588594581727
aF647.2814391594393
aF0.0
aF0.0
aF0.0
aF0.0
aF0.0
aa(lp657
F367.58570292309105
aF650.2569951679515
aF0.0
aF0.0
aF0.0
aF0.0
aF0.0
aa(lp658
F367.2124464264409
aF653.2325511764639
aF0.0
aF0.0
aF0.0
aF0.0
aF0.0
aa(lp659
F366.8392898913592
aF656.2080072234077
aF0.0
aF0.0
aF0.0
aF0.0
aF0.0
aa(lp660
F366.30449550006887
aF659.4537593514823
aF0.0
aF0.0
aF0.0
aF0.0
aF0.0
aa(lp661
F365.80588719656294
aF662.4109224313969
aF0.0
aF0.0
aF0.0
aF0.0
aF0.0
aa(lp662
F365.30737885462554
aF665.367985549743
aF0.0
aF0.0
aF0.0
aF0.0
aF0.0
aa(lp663
F365.21881290496515
aF665.8928837457554
aF0.0
aF0.0
aF0.0
aF0.0
aF0.0
aa(lp664
F364.5484706268355
aF668.8158599692548
aF0.0
aF0.0
aF0.0
aF0.0
aF0.0
aa(lp665
F363.8780283871375
aF671.7388361927543
aF0.0
aF0.0
aF0.0
aF0.0
aF0.0
aa(lp666
F363.5858407225129
aF673.0127464212784
aF0.0
aF0.0
aF0.0
aF0.0
aF0.0
aa(lp667
F362.65519852009913
aF675.8635503923458
aF0.0
aF0.0
aF0.0
aF0.0
aF0.0
aa(lp668
F362.05892776420245
aF677.6902480944842
aF0.0
aF0.0
aF0.0
aF0.0
aF0.0
aa(lp669
F359.8795656485178
aF682.615354572779
aF0.0
aF0.0
aF0.0
aF0.0
aF0.0
aa(lp670
F358.4880006539097
aF685.2718332547495
aF0.0
aF0.0
aF0.0
aF0.0
aF0.0
aa(lp671
F357.09643565930156
aF687.9282119751514
aF0.0
aF0.0
aF0.0
aF0.0
aF0.0
aa(lp672
F355.47545886506515
aF690.7844138709158
aF0.0
aF0.0
aF0.0
aF0.0
aF0.0
aa(lp673
F354.0460084360086
aF693.2843527366693
aF0.0
aF0.0
aF0.0
aF0.0
aF0.0
aa(lp674
F352.4729132330672
aF695.8374711568466
aF0.0
aF0.0
aF0.0
aF0.0
aF0.0
aa(lp675
F351.7770807549789
aF696.9668369573697
aF0.0
aF0.0
aF0.0
aF0.0
aF0.0
aa(lp676
F350.6313212572274
aF698.7840383105039
aF0.0
aF0.0
aF0.0
aF0.0
aF0.0
aa(lp677
F349.7551581096274
aF700.1738039968797
aF0.0
aF0.0
aF0.0
aF0.0
aF0.0
aa(lp678
F347.6295753177772
aF703.3217937109949
aF0.0
aF0.0
aF0.0
aF0.0
aF0.0
aa(lp679
F347.0030162066355
aF704.3306058599487
aF0.0
aF0.0
aF0.0
aF0.0
aF0.0
aa(lp680
F345.5263839172632
aF706.940702374151
aF0.0
aF0.0
aF0.0
aF0.0
aF0.0
aa(lp681
F344.1478139265556
aF709.3773655670659
aF0.0
aF0.0
aF0.0
aF0.0
aF0.0
aa(lp682
F342.70986676417954
aF712.0090537800569
aF0.0
aF0.0
aF0.0
aF0.0
aF0.0
aa(lp683
F341.58569896521664
aF714.0663628206453
aF0.0
aF0.0
aF0.0
aF0.0
aF0.0
aa(lp684
F340.18433773689884
aF716.6235796651293
aF0.0
aF0.0
aF0.0
aF0.0
aF0.0
aa(lp685
F339.3479592935481
aF717.8941911618944
aF0.0
aF0.0
aF0.0
aF0.0
aF0.0
aa(lp686
F338.4862905733755
aF719.0137607287078
aF0.0
aF0.0
aF0.0
aF0.0
aF0.0
aa(lp687
F337.08392972937315
aF721.6644416397073
aF0.0
aF0.0
aF0.0
aF0.0
aF0.0
aa(lp688
F344.8077602015648
aF718.9477860935206
aF0.0
aF0.0
aF0.0
aF0.0
aF0.0
aaa(lp689
(lp690
F347.5001250866144
aF714.220703482356
aF0.0
aF0.0
aF0.0
aF0.0
aF0.0
aa(lp691
F346.3689599778589
aF716.0056172488758
aF0.0
aF0.0
aF0.0
aF0.0
aF0.0
aa(lp692
F345.9686138961546
aF717.2050561088932
aF0.0
aF0.0
aF0.0
aF0.0
aF0.0
aa(lp693
F344.8077602015648
aF718.9477860935206
aF0.0
aF0.0
aF0.0
aF0.0
aF0.0
aa(lp694
F343.66120101126563
aF721.5109006705442
aF0.0
aF0.0
aF0.0
aF0.0
aF0.0
aa(lp695
F343.4487826782764
aF721.9857181207553
aF0.0
aF0.0
aF0.0
aF0.0
aF0.0
aa(lp696
F343.38090877328835
aF724.0191363464803
aF0.0
aF0.0
aF0.0
aF0.0
aF0.0
aa(lp697
F343.97797922173277
aF725.1082176349119
aF0.0
aF0.0
aF0.0
aF0.0
aF0.0
aa(lp698
F344.9852919471595
aF725.7403745938877
aF0.0
aF0.0
aF0.0
aF0.0
aF0.0
aa(lp699
F347.41845648517807
aF725.9366991143539
aF0.0
aF0.0
aF0.0
aF0.0
aF0.0
aa(lp700
F350.41700365443745
aF725.891416523839
aF0.0
aF0.0
aF0.0
aF0.0
aF0.0
aa(lp701
F350.81445085065616
aF725.8853188681627
aF0.0
aF0.0
aF0.0
aF0.0
aF0.0
aa(lp702
F353.77731173997336
aF725.4218970367566
aF0.0
aF0.0
aF0.0
aF0.0
aF0.0
aa(lp703
F356.56733907741375
aF724.9854648288363
aF0.0
aF0.0
aF0.0
aF0.0
aF0.0
aa(lp704
F359.48351791425756
aF724.2864335805571
aF0.0
aF0.0
aF0.0
aF0.0
aF0.0
aa(lp705
F362.3997967126698
aF723.5874023322779
aF0.0
aF0.0
aF0.0
aF0.0
aF0.0
aa(lp706
F363.4686857642713
aF723.3312008323007
aF0.0
aF0.0
aF0.0
aF0.0
aF0.0
aa(lp707
F366.2578134475955
aF722.2293244631057
aF0.0
aF0.0
aF0.0
aF0.0
aF0.0
aa(lp708
F368.27133932119585
aF721.4337303396889
aF0.0
aF0.0
aF0.0
aF0.0
aF0.0
aa(lp709
F369.7447728403772
aF720.7733842184058
aF0.0
aF0.0
aF0.0
aF0.0
aF0.0
aa(lp710
F371.5437811880506
aF718.9442874386243
aF0.0
aF0.0
aF0.0
aF0.0
aF0.0
aa(lp711
F372.3173837664051
aF717.9343757124174
aF0.0
aF0.0
aF0.0
aF0.0
aF0.0
aa(lp712
F372.8141927616786
aF717.2190507284784
aF0.0
aF0.0
aF0.0
aF0.0
aF0.0
aa(lp713
F373.45484645397397
aF715.0280930708517
aF0.0
aF0.0
aF0.0
aF0.0
aF0.0
aa(lp714
F374.09679964665935
aF712.0987193069705
aF0.0
aF0.0
aF0.0
aF0.0
aF0.0
aa(lp715
F374.5571226694429
aF709.9982268688051
aF0.0
aF0.0
aF0.0
aF0.0
aF0.0
aa(lp716
F375.1682876990409
aF707.0622556414052
aF0.0
aF0.0
aF0.0
aF0.0
aF0.0
aa(lp717
F375.7086799381654
aF704.4665535930617
aF0.0
aF0.0
aF0.0
aF0.0
aF0.0
aa(lp718
F376.3225439301119
aF701.5311821350724
aF0.0
aF0.0
aF0.0
aF0.0
aF0.0
aa(lp719
F376.4550929698972
aF700.8975257525698
aF0.0
aF0.0
aF0.0
aF0.0
aF0.0
aa(lp720
F376.9574998130048
aF698.5445303924605
aF0.0
aF0.0
aF0.0
aF0.0
aF0.0
aa(lp721
F377.2505871317456
aF697.4099665903772
aF0.0
aF0.0
aF0.0
aF0.0
aF0.0
aa(lp722
F377.86475100839755
aF695.0736648122017
aF0.0
aF0.0
aF0.0
aF0.0
aF0.0
aa(lp723
F378.42103713690807
aF692.2897351304377
aF0.0
aF0.0
aF0.0
aF0.0
aF0.0
aa(lp724
F378.85696953698607
aF689.3227758168135
aF0.0
aF0.0
aF0.0
aF0.0
aF0.0
aa(lp725
F379.5694955970081
aF686.0554319899505
aF0.0
aF0.0
aF0.0
aF0.0
aF0.0
aa(lp726
F381.08411328239725
aF682.844266564565
aF0.0
aF0.0
aF0.0
aF0.0
aF0.0
aa(lp727
F381.81063396200443
aF681.4547008013261
aF0.0
aF0.0
aF0.0
aF0.0
aF0.0
aa(lp728
F383.1778083339069
aF679.2899330746376
aF0.0
aF0.0
aF0.0
aF0.0
aF0.0
aa(lp729
F384.73710884040014
aF676.7283179211407
aF0.0
aF0.0
aF0.0
aF0.0
aF0.0
aa(lp730
F385.67944654632424
aF675.0083791741235
aF0.0
aF0.0
aF0.0
aF0.0
aF0.0
aa(lp731
F386.6067900169787
aF672.9079866975266
aF0.0
aF0.0
aF0.0
aF0.0
aF0.0
aa(lp732
F387.4870515888858
aF668.9519076639364
aF0.0
aF0.0
aF0.0
aF0.0
aF0.0
aa(lp733
F389.1629072842098
aF669.2224036682039
aF0.0
aF0.0
aF0.0
aF0.0
aF0.0
aa(lp734
F389.6954025594255
aF669.2114078956728
aF0.0
aF0.0
aF0.0
aF0.0
aF0.0
aa(lp735
F390.5683669368346
aF667.5694391720585
aF0.0
aF0.0
aF0.0
aF0.0
aF0.0
aa(lp736
F390.9947030263399
aF665.2874165255598
aF0.0
aF0.0
aF0.0
aF0.0
aF0.0
aa(lp737
F391.00150041299565
aF662.5822565597467
aF0.0
aF0.0
aF0.0
aF0.0
aF0.0
aa(lp738
F390.8782477990777
aF659.5860085065622
aF0.0
aF0.0
aF0.0
aF0.0
aF0.0
aa(lp739
F390.7630920722053
aF656.7849853965905
aF0.0
aF0.0
aF0.0
aF0.0
aF0.0
aa(lp740
F390.70401478524224
aF653.7867381120366
aF0.0
aF0.0
aF0.0
aF0.0
aF0.0
aa(lp741
F389.853141914464
aF650.3940424783177
aF0.0
aF0.0
aF0.0
aF0.0
aF0.0
aa(lp742
F390.02447604281383
aF647.4000935412078
aF0.0
aF0.0
aF0.0
aF0.0
aF0.0
aa(lp743
F390.19581017116366
aF644.4061446040979
aF0.0
aF0.0
aF0.0
aF0.0
aF0.0
aa(lp744
F390.3671442995136
aF641.4121956669878
aF0.0
aF0.0
aF0.0
aF0.0
aF0.0
aa(lp745
F390.53857838943196
aF638.418246729878
aF0.0
aF0.0
aF0.0
aF0.0
aF0.0
aa(lp746
F390.67162723705945
aF636.0925408779598
aF0.0
aF0.0
aF0.0
aF0.0
aF0.0
aa(lp747
F390.84296136540934
aF633.0985919408499
aF0.0
aF0.0
aF0.0
aF0.0
aF0.0
aa(lp748
F390.88534507043875
aF632.3580766416575
aF0.0
aF0.0
aF0.0
aF0.0
aF0.0
aa(lp749
F391.03448773058915
aF629.3629281657261
aF0.0
aF0.0
aF0.0
aF0.0
aF0.0
aa(lp750
F391.1837303523082
aF626.3677796897945
aF0.0
aF0.0
aF0.0
aF0.0
aF0.0
aa(lp751
F391.33287301245866
aF623.372631213863
aF0.0
aF0.0
aF0.0
aF0.0
aF0.0
aa(lp752
F391.4821156341777
aF620.3774827379314
aF0.0
aF0.0
aF0.0
aF0.0
aF0.0
aa(lp753
F391.63125829432823
aF617.3824342235682
aF0.0
aF0.0
aF0.0
aF0.0
aF0.0
aa(lp754
F391.7233228988849
aF615.5338449379359
aF0.0
aF0.0
aF0.0
aF0.0
aF0.0
aa(lp755
F391.8926577958655
aF612.5397960392576
aF0.0
aF0.0
aF0.0
aF0.0
aF0.0
aa(lp756
F392.06199269284605
aF609.5457471405791
aF0.0
aF0.0
aF0.0
aF0.0
aF0.0
aa(lp757
F392.22213112552765
aF606.7143357137941
aF0.0
aF0.0
aF0.0
aF0.0
aF0.0
aa(lp758
F392.25901694429143
aF603.7156885829662
aF0.0
aF0.0
aF0.0
aF0.0
aF0.0
aa(lp759
F392.26901310113806
aF602.9020014156571
aF0.0
aF0.0
aF0.0
aF0.0
aF0.0
aa(lp760
F392.3411853535701
aF599.9040540158086
aF0.0
aF0.0
aF0.0
aF0.0
aF0.0
aa(lp761
F392.4134575675707
aF596.9060066543915
aF0.0
aF0.0
aF0.0
aF0.0
aF0.0
aa(lp762
F392.4378481902762
aF595.8895974262344
aF0.0
aF0.0
aF0.0
aF0.0
aF0.0
aa(lp763
F392.4505433094714
aF592.8907503722696
aF0.0
aF0.0
aF0.0
aF0.0
aF0.0
aa(lp764
F392.4591400043594
aF590.8414382571585
aF0.0
aF0.0
aF0.0
aF0.0
aF0.0
aa(lp765
F392.62557601585445
aF587.8471894353434
aF0.0
aF0.0
aF0.0
aF0.0
aF0.0
aa(lp766
F392.7831154477561
aF585.0127791615042
aF0.0
aF0.0
aF0.0
aF0.0
aF0.0
aa(lp767
F393.042715641061
aF582.0252277647761
aF0.0
aF0.0
aF0.0
aF0.0
aF0.0
aa(lp768
F393.1292823593521
aF578.7933702947183
aF0.0
aF0.0
aF0.0
aF0.0
aF0.0
aa(lp769
F393.58790603547175
aF575.8298096744218
aF0.0
aF0.0
aF0.0
aF0.0
aF0.0
aa(lp770
F393.9646611870181
aF573.3948458281709
aF0.0
aF0.0
aF0.0
aF0.0
aF0.0
aa(lp771
F394.10690649894457
aF572.4756992061307
aF0.0
aF0.0
aF0.0
aF0.0
aF0.0
aa(lp772
F394.7292672242108
aF569.5421270563738
aF0.0
aF0.0
aF0.0
aF0.0
aF0.0
aa(lp773
F395.35152798790836
aF566.6085549066171
aF0.0
aF0.0
aF0.0
aF0.0
aF0.0
aa(lp774
F395.4850766433783
aF565.9793967946954
aF0.0
aF0.0
aF0.0
aF0.0
aF0.0
aa(lp775
F396.1935042790932
aF563.0654171123577
aF0.0
aF0.0
aF0.0
aF0.0
aF0.0
aa(lp776
F396.9019319148082
aF560.1515373915886
aF0.0
aF0.0
aF0.0
aF0.0
aF0.0
aa(lp777
F397.41903310848016
aF558.0248550224853
aF0.0
aF0.0
aF0.0
aF0.0
aF0.0
aa(lp778
F398.00300859145557
aF555.0834858703882
aF0.0
aF0.0
aF0.0
aF0.0
aF0.0
aa(lp779
F398.58708403599945
aF552.1420167567227
aF0.0
aF0.0
aF0.0
aF0.0
aF0.0
aa(lp780
F399.17115948054334
aF549.2006476046255
aF0.0
aF0.0
aF0.0
aF0.0
aF0.0
aa(lp781
F399.7551349635188
aF546.25917849096
aF0.0
aF0.0
aF0.0
aF0.0
aF0.0
aa(lp782
F400.29252835558924
aF542.8817769772165
aF0.0
aF0.0
aF0.0
aF0.0
aF0.0
aa(lp783
F400.74785329994955
aF539.9177165490776
aF0.0
aF0.0
aF0.0
aF0.0
aF0.0
aa(lp784
F401.20307828274144
aF536.9535561593705
aF0.0
aF0.0
aF0.0
aF0.0
aF0.0
aa(lp785
F401.65840322710176
aF533.9894957312316
aF0.0
aF0.0
aF0.0
aF0.0
aF0.0
aa(lp786
F402.11372817146207
aF531.025435303093
aF0.0
aF0.0
aF0.0
aF0.0
aF0.0
aa(lp787
F402.5534591111416
aF528.1624360206727
aF0.0
aF0.0
aF0.0
aF0.0
aF0.0
aa(lp788
F403.00538536217425
aF525.1978757846917
aF0.0
aF0.0
aF0.0
aF0.0
aF0.0
aa(lp789
F403.45741157477505
aF522.2333155487105
aF0.0
aF0.0
aF0.0
aF0.0
aF0.0
aa(lp790
F403.9093378258076
aF519.268655351161
aF0.0
aF0.0
aF0.0
aF0.0
aF0.0
aa(lp791
F404.3613640384085
aF516.30409511518
aF0.0
aF0.0
aF0.0
aF0.0
aF0.0
aa(lp792
F404.81329028944106
aF513.3395348791987
aF0.0
aF0.0
aF0.0
aF0.0
aF0.0
aa(lp793
F405.13106811559294
aF511.25523621512485
aF0.0
aF0.0
aF0.0
aF0.0
aF0.0
aa(lp794
F405.7228406009086
aF508.31536648655464
aF0.0
aF0.0
aF0.0
aF0.0
aF0.0
aa(lp795
F406.31451312465583
aF505.37539679641617
aF0.0
aF0.0
aF0.0
aF0.0
aF0.0
aa(lp796
F406.9062856099715
aF502.435527067846
aF0.0
aF0.0
aF0.0
aF0.0
aF0.0
aa(lp797
F407.1500918754589
aF501.2241927811812
aF0.0
aF0.0
aF0.0
aF0.0
aF0.0
aa(lp798
F407.87831190173006
aF498.31511121569844
aF0.0
aF0.0
aF0.0
aF0.0
aF0.0
aa(lp799
F408.54405594771015
aF495.6552338404002
aF0.0
aF0.0
aF0.0
aF0.0
aF0.0
aa(lp800
F409.1435254737978
aF492.7169634969254
aF0.0
aF0.0
aF0.0
aF0.0
aF0.0
aa(lp801
F409.5863552220999
aF490.5456982682865
aF0.0
aF0.0
aF0.0
aF0.0
aF0.0
aa(lp802
F409.8139677134959
aF487.55544790920976
aF0.0
aF0.0
aF0.0
aF0.0
aF0.0
aa(lp803
F409.8621491894962
aF486.92259121925485
aF0.0
aF0.0
aF0.0
aF0.0
aF0.0
aa(lp804
F410.3438639879314
aF483.96272917699156
aF0.0
aF0.0
aF0.0
aF0.0
aF0.0
aa(lp805
F410.46171867715225
aF483.23870753659594
aF0.0
aF0.0
aF0.0
aF0.0
aF0.0
aa(lp806
F410.5911689083149
aF480.24265940654834
aF0.0
aF0.0
aF0.0
aF0.0
aF0.0
aa(lp807
F410.3231719432589
aF478.91187104556724
aF0.0
aF0.0
aF0.0
aF0.0
aF0.0
aa(lp808
F409.125732314611
aF476.1624281049239
aF0.0
aF0.0
aF0.0
aF0.0
aF0.0
aa(lp809
F407.37880394410786
aF474.1982832461454
aF0.0
aF0.0
aF0.0
aF0.0
aF0.0
aa(lp810
F406.42507061937863
aF472.6091941922494
aF0.0
aF0.0
aF0.0
aF0.0
aF0.0
aa(lp811
F406.1229867594759
aF472.1057877334572
aF0.0
aF0.0
aF0.0
aF0.0
aF0.0
aa(lp812
F410.14584012080127
aF471.36637201151797
aF0.0
aF0.0
aF0.0
aF0.0
aF0.0
aa(lp813
F411.4936219484215
aF470.91064722088385
aF0.0
aF0.0
aF0.0
aF0.0
aF0.0
aa(lp814
F414.3429264959618
aF469.97530682475224
aF0.0
aF0.0
aF0.0
aF0.0
aF0.0
aa(lp815
F415.722296179217
aF469.522580881172
aF0.0
aF0.0
aF0.0
aF0.0
aF0.0
aa(lp816
F418.5820966914464
aF468.6201278410656
aF0.0
aF0.0
aF0.0
aF0.0
aF0.0
aa(lp817
F419.3591979246971
aF468.37492211361973
aF0.0
aF0.0
aF0.0
aF0.0
aF0.0
aa(lp818
F422.1966070455901
aF467.40429528381975
aF0.0
aF0.0
aF0.0
aF0.0
aF0.0
aa(lp819
F423.5169994034509
aF466.95256895592416
aF0.0
aF0.0
aF0.0
aF0.0
aF0.0
aa(lp820
F426.34841083023593
aF465.96454881321125
aF0.0
aF0.0
aF0.0
aF0.0
aF0.0
aa(lp821
F428.3959236371145
aF465.25002352181997
aF0.0
aF0.0
aF0.0
aF0.0
aF0.0
aa(lp822
F433.60222200750275
aF463.5257864273587
aF0.0
aF0.0
aF0.0
aF0.0
aF0.0
aa(lp823
F436.44982720837925
aF462.58564787594065
aF0.0
aF0.0
aF0.0
aF0.0
aF0.0
aa(lp824
F439.2975323708241
aF461.64540936295435
aF0.0
aF0.0
aF0.0
aF0.0
aF0.0
aa(lp825
F442.2367023684151
aF460.62130309402534
aF0.0
aF0.0
aF0.0
aF0.0
aF0.0
aa(lp826
F445.06801383363165
aF459.63288310503856
aF0.0
aF0.0
aF0.0
aF0.0
aF0.0
aa(lp827
F448.26458487002105
aF458.47712745044055
aF0.0
aF0.0
aF0.0
aF0.0
aF0.0
aa(lp828
F450.47073668605447
aF457.67573555605264
aF0.0
aF0.0
aF0.0
aF0.0
aF0.0
aa(lp829
F453.2852546077688
aF456.6406335145925
aF0.0
aF0.0
aF0.0
aF0.0
aF0.0
aa(lp830
F456.0997725294833
aF455.6054315115639
aF0.0
aF0.0
aF0.0
aF0.0
aF0.0
aa(lp831
F456.4329444371788
aF455.4829785901937
aF0.0
aF0.0
aF0.0
aF0.0
aF0.0
aa(lp832
F459.2003804601459
aF454.46866855497433
aF0.0
aF0.0
aF0.0
aF0.0
aF0.0
aa(lp833
F462.0159979591135
aF453.4365653605681
aF0.0
aF0.0
aF0.0
aF0.0
aF0.0
aa(lp834
F464.92767852537634
aF452.5213172396981
aF0.0
aF0.0
aF0.0
aF0.0
aF0.0
aa(lp835
F466.94450313073594
aF451.8891602807223
aF0.0
aF0.0
aF0.0
aF0.0
aF0.0
aa(lp836
F470.5985982659921
aF452.38726877638584
aF0.0
aF0.0
aF0.0
aF0.0
aF0.0
aa(lp837
F473.45579977744137
aF451.8978569371788
aF0.0
aF0.0
aF0.0
aF0.0
aF0.0
aa(lp838
F476.37817623153
aF451.2250156198376
aF0.0
aF0.0
aF0.0
aF0.0
aF0.0
aa(lp839
F479.30055268561864
aF450.5521743024963
aF0.0
aF0.0
aF0.0
aF0.0
aF0.0
aa(lp840
F482.3009991246788
aF449.8186563130966
aF0.0
aF0.0
aF0.0
aF0.0
aF0.0
aa(lp841
F483.44595892988264
aF449.5383640751193
aF0.0
aF0.0
aF0.0
aF0.0
aF0.0
aa(lp842
F486.2595771974808
aF448.50066303287906
aF0.0
aF0.0
aF0.0
aF0.0
aF0.0
aa(lp843
F488.5215075687179
aF447.6664837440345
aF0.0
aF0.0
aF0.0
aF0.0
aF0.0
aa(lp844
F491.22816695805795
aF446.3753801257342
aF0.0
aF0.0
aF0.0
aF0.0
aF0.0
aa(lp845
F492.66411488906476
aF445.6904434586086
aF0.0
aF0.0
aF0.0
aF0.0
aF0.0
aa(lp846
F495.3690749317409
aF444.3956412622751
aF0.0
aF0.0
aF0.0
aF0.0
aF0.0
aa(lp847
F497.42228554802216
aF443.4128191211224
aF0.0
aF0.0
aF0.0
aF0.0
aF0.0
aa(lp848
F499.9110287181077
aF442.08942791620774
aF0.0
aF0.0
aF0.0
aF0.0
aF0.0
aa(lp849
F502.5589107051899
aF440.6814692243713
aF0.0
aF0.0
aF0.0
aF0.0
aF0.0
aa(lp850
F505.4265082197595
aF439.06399108503126
aF0.0
aF0.0
aF0.0
aF0.0
aF0.0
aa(lp851
F508.03500534886643
aF437.58425998703655
aF0.0
aF0.0
aF0.0
aF0.0
aF0.0
aa(lp852
F508.99173752064974
aF437.04146867026896
aF0.0
aF0.0
aF0.0
aF0.0
aF0.0
aa(lp853
F511.51786631734115
aF435.42538999288735
aF0.0
aF0.0
aF0.0
aF0.0
aF0.0
aa(lp854
F514.0604887728296
aF433.79871538924834
aF0.0
aF0.0
aF0.0
aF0.0
aF0.0
aa(lp855
F516.457767107769
aF431.9971080407947
aF0.0
aF0.0
aF0.0
aF0.0
aF0.0
aa(lp856
F518.6876098155286
aF430.3214522686078
aF0.0
aF0.0
aF0.0
aF0.0
aF0.0
aa(lp857
F520.9642345373302
aF428.36950272118213
aF0.0
aF0.0
aF0.0
aF0.0
aF0.0
aa(lp858
F522.5096403858067
aF427.0444121696035
aF0.0
aF0.0
aF0.0
aF0.0
aF0.0
aa(lp859
F524.6697099187776
aF424.9641119682682
aF0.0
aF0.0
aF0.0
aF0.0
aF0.0
aa(lp860
F525.1800137257939
aF424.4726009361233
aF0.0
aF0.0
aF0.0
aF0.0
aF0.0
aa(lp861
F525.5221821746513
aF424.1431276064611
aF0.0
aF0.0
aF0.0
aF0.0
aF0.0
aa(lp862
F526.6299562763859
aF423.0796364795567
aF0.0
aF0.0
aF0.0
aF0.0
aF0.0
aa(lp863
F529.8712101338793
aF421.43686806339485
aF0.0
aF0.0
aF0.0
aF0.0
aF0.0
aa(lp864
F532.0895572612657
aF419.99522232298557
aF0.0
aF0.0
aF0.0
aF0.0
aF0.0
aa(lp865
F533.4547324017988
aF419.10786347971737
aF0.0
aF0.0
aF0.0
aF0.0
aF0.0
aa(lp866
F536.1247058955121
aF417.7423884544787
aF0.0
aF0.0
aF0.0
aF0.0
aF0.0
aa(lp867
F539.1653368850954
aF420.6580674834802
aF0.0
aF0.0
aF0.0
aF0.0
aF0.0
aa(lp868
F540.8219999592741
aF422.8029428580442
aF0.0
aF0.0
aF0.0
aF0.0
aF0.0
aa(lp869
F542.5987168771796
aF426.2743082461454
aF0.0
aF0.0
aF0.0
aF0.0
aF0.0
aa(lp870
F544.4934884074431
aF428.3141240122522
aF0.0
aF0.0
aF0.0
aF0.0
aF0.0
aa(lp871
F545.9327350702093
aF429.3107408498532
aF0.0
aF0.0
aF0.0
aF0.0
aF0.0
aa(lp872
F547.2751189731324
aF430.49428582048455
aF0.0
aF0.0
aF0.0
aF0.0
aF0.0
aa(lp873
F547.7421394210031
aF430.97440123382427
aF0.0
aF0.0
aF0.0
aF0.0
aF0.0
aa(lp874
F548.8066301635922
aF432.0690803700899
aF0.0
aF0.0
aF0.0
aF0.0
aF0.0
aa(lp875
F550.339640777579
aF434.0006377575486
aF0.0
aF0.0
aF0.0
aF0.0
aF0.0
aa(lp876
F551.9649159192594
aF436.05554772049373
aF0.0
aF0.0
aF0.0
aF0.0
aF0.0
aa(lp877
F553.4088607757434
aF438.13054995870044
aF0.0
aF0.0
aF0.0
aF0.0
aF0.0
aa(lp878
F554.6706756544833
aF440.37358759349763
aF0.0
aF0.0
aF0.0
aF0.0
aF0.0
aa(lp879
F555.8588188572642
aF443.1270289968796
aF0.0
aF0.0
aF0.0
aF0.0
aF0.0
aa(lp880
F557.392729125367
aF445.98243120009636
aF0.0
aF0.0
aF0.0
aF0.0
aF0.0
aa(lp881
F557.6603262441492
aF446.4726427318511
aF0.0
aF0.0
aF0.0
aF0.0
aF0.0
aa(lp882
F559.4915222168686
aF448.8475296754543
aF0.0
aF0.0
aF0.0
aF0.0
aF0.0
aa(lp883
F560.2517299450486
aF449.833350663661
aF0.0
aF0.0
aF0.0
aF0.0
aF0.0
aa(lp884
F562.2128759567731
aF452.10197845998533
aF0.0
aF0.0
aF0.0
aF0.0
aF0.0
aa(lp885
F563.289162164441
aF453.34699979522304
aF0.0
aF0.0
aF0.0
aF0.0
aF0.0
aa(lp886
F565.250408137734
aF455.61562759154737
aF0.0
aF0.0
aF0.0
aF0.0
aF0.0
aa(lp887
F568.80484158923
aF460.1925679268768
aF0.0
aF0.0
aF0.0
aF0.0
aF0.0
aa(lp888
F570.7131079312362
aF462.50597850587366
aF0.0
aF0.0
aF0.0
aF0.0
aF0.0
aa(lp889
F572.6213742732425
aF464.8193890848706
aF0.0
aF0.0
aF0.0
aF0.0
aF0.0
aa(lp890
F573.7901249317409
aF466.23634431786894
aF0.0
aF0.0
aF0.0
aF0.0
aF0.0
aa(lp891
F575.6377146016887
aF468.5984361807085
aF0.0
aF0.0
aF0.0
aF0.0
aF0.0
aa(lp892
F577.4854042332049
aF470.96052804354815
aF0.0
aF0.0
aF0.0
aF0.0
aF0.0
aa(lp893
F579.3329939031527
aF473.3226199063877
aF0.0
aF0.0
aF0.0
aF0.0
aF0.0
aa(lp894
F581.1805835731002
aF475.68471176922725
aF0.0
aF0.0
aF0.0
aF0.0
aF0.0
aa(lp895
F583.028173243048
aF478.04680363206677
aF0.0
aF0.0
aF0.0
aF0.0
aF0.0
aa(lp896
F584.5695806287857
aF480.0175459543639
aF0.0
aF0.0
aF0.0
aF0.0
aF0.0
aa(lp897
F586.330703542011
aF482.44481275984305
aF0.0
aF0.0
aF0.0
aF0.0
aF0.0
aa(lp898
F588.091826455236
aF484.8720795653221
aF0.0
aF0.0
aF0.0
aF0.0
aF0.0
aa(lp899
F589.8529493684609
aF487.29934637080123
aF0.0
aF0.0
aF0.0
aF0.0
aF0.0
aa(lp900
F591.6140722816859
aF489.7266131762803
aF0.0
aF0.0
aF0.0
aF0.0
aF0.0
aa(lp901
F592.2229381952093
aF490.5657905435481
aF0.0
aF0.0
aF0.0
aF0.0
aF0.0
aa(lp902
F595.2425772554149
aF495.7478982143677
aF0.0
aF0.0
aF0.0
aF0.0
aF0.0
aa(lp903
F596.0238768745411
aF497.08868273219525
aF0.0
aF0.0
aF0.0
aF0.0
aF0.0
aa(lp904
F597.0660761873623
aF499.90060165312957
aF0.0
aF0.0
aF0.0
aF0.0
aF0.0
aa(lp905
F598.1083754617521
aF502.7125205740639
aF0.0
aF0.0
aF0.0
aF0.0
aF0.0
aa(lp906
F598.529713472834
aF503.84948345379036
aF0.0
aF0.0
aF0.0
aF0.0
aF0.0
aa(lp907
F599.3009169735453
aF506.747369323605
aF0.0
aF0.0
aF0.0
aF0.0
aF0.0
aa(lp908
F600.0244388060986
aF509.4658241780241
aF0.0
aF0.0
aF0.0
aF0.0
aF0.0
aa(lp909
F600.9926665582553
aF512.3040329914647
aF0.0
aF0.0
aF0.0
aF0.0
aF0.0
aa(lp910
F601.7412787444933
aF514.4981894192824
aF0.0
aF0.0
aF0.0
aF0.0
aF0.0
aa(lp911
F602.5648621070806
aF517.381680823238
aF0.0
aF0.0
aF0.0
aF0.0
aF0.0
aa(lp912
F602.6386337446081
aF517.6399815161526
aF0.0
aF0.0
aF0.0
aF0.0
aF0.0
aa(lp913
F603.3862463151615
aF520.5440650032122
aF0.0
aF0.0
aF0.0
aF0.0
aF0.0
aa(lp914
F603.8137819434885
aF522.2050264248348
aF0.0
aF0.0
aF0.0
aF0.0
aF0.0
aa(lp915
F604.4092530068374
aF525.1441964224256
aF0.0
aF0.0
aF0.0
aF0.0
aF0.0
aa(lp916
F604.7885071975954
aF527.0160767535106
aF0.0
aF0.0
aF0.0
aF0.0
aF0.0
aa(lp917
F605.3745818735088
aF529.9571460209021
aF0.0
aF0.0
aF0.0
aF0.0
aF0.0
aa(lp918
F605.4892377925386
aF530.5329246552634
aF0.0
aF0.0
aF0.0
aF0.0
aF0.0
aa(lp919
F605.6192877931121
aF531.1499874174009
aF0.0
aF0.0
aF0.0
aF0.0
aF0.0
aa(lp920
F606.1242936369998
aF533.3084575652763
aF0.0
aF0.0
aF0.0
aF0.0
aF0.0
aa(lp921
F606.3235170429516
aF534.1601301286022
aF0.0
aF0.0
aF0.0
aF0.0
aF0.0
aa(lp922
F606.8092303041253
aF536.9015761437684
aF0.0
aF0.0
aF0.0
aF0.0
aF0.0
aa(lp923
F607.0384421806168
aF541.057678275858
aF0.0
aF0.0
aF0.0
aF0.0
aF0.0
aa(lp924
F607.2938439880461
aF543.4604544970631
aF0.0
aF0.0
aF0.0
aF0.0
aF0.0
aa(lp925
F607.6348128980818
aF547.6014624323146
aF0.0
aF0.0
aF0.0
aF0.0
aF0.0
aa(lp926
F607.9423946442502
aF550.5845155584618
aF0.0
aF0.0
aF0.0
aF0.0
aF0.0
aa(lp927
F608.2498764288501
aF553.567568684609
aF0.0
aF0.0
aF0.0
aF0.0
aF0.0
aa(lp928
F608.5574581750184
aF556.5506218107563
aF0.0
aF0.0
aF0.0
aF0.0
aF0.0
aa(lp929
F608.8317527188877
aF559.2110989554653
aF0.0
aF0.0
aF0.0
aF0.0
aF0.0
aa(lp930
F609.1372352721182
aF562.1943520047495
aF0.0
aF0.0
aF0.0
aF0.0
aF0.0
aa(lp931
F609.4426178637804
aF565.1775050924651
aF0.0
aF0.0
aF0.0
aF0.0
aF0.0
aa(lp932
F609.7481004170108
aF568.1608581033179
aF0.0
aF0.0
aF0.0
aF0.0
aF0.0
aa(lp933
F610.0152976895191
aF570.770054963404
aF0.0
aF0.0
aF0.0
aF0.0
aF0.0
aa(lp934
F610.2093230939106
aF573.7626044385555
aF0.0
aF0.0
aF0.0
aF0.0
aF0.0
aa(lp935
F610.4034484598707
aF576.7551539137069
aF0.0
aF0.0
aF0.0
aF0.0
aF0.0
aa(lp936
F610.4926141789418
aF578.130625095792
aF0.0
aF0.0
aF0.0
aF0.0
aF0.0
aa(lp937
F610.6333600673412
aF581.1261734179975
aF0.0
aF0.0
aF0.0
aF0.0
aF0.0
aa(lp938
F610.7275238648357
aF583.1281037496559
aF0.0
aF0.0
aF0.0
aF0.0
aF0.0
aa(lp939
F610.9955208298917
aF586.1149554154047
aF0.0
aF0.0
aF0.0
aF0.0
aF0.0
aa(lp940
F611.2083390091548
aF588.4849442421531
aF0.0
aF0.0
aF0.0
aF0.0
aF0.0
aa(lp941
F611.2622182945576
aF591.4832914882755
aF0.0
aF0.0
aF0.0
aF0.0
aF0.0
aa(lp942
F611.3160975799605
aF594.481638734398
aF0.0
aF0.0
aF0.0
aF0.0
aF0.0
aa(lp943
F611.3266935062179
aF595.0716119114812
aF0.0
aF0.0
aF0.0
aF0.0
aF0.0
aa(lp944
F610.9261475013766
aF598.4553110040381
aF0.0
aF0.0
aF0.0
aF0.0
aF0.0
aa(lp945
F610.9139521900238
aF598.5444767231094
aF0.0
aF0.0
aF0.0
aF0.0
aF0.0
aa(lp946
F610.5059090675478
aF601.5154344994722
aF0.0
aF0.0
aF0.0
aF0.0
aF0.0
aa(lp947
F610.4274392363023
aF602.0865149401156
aF0.0
aF0.0
aF0.0
aF0.0
aF0.0
aa(lp948
F609.8197728616005
aF605.0230859369263
aF0.0
aF0.0
aF0.0
aF0.0
aF0.0
aa(lp949
F609.2263010296209
aF607.8907834130645
aF0.0
aF0.0
aF0.0
aF0.0
aF0.0
aa(lp950
F608.5181732786114
aF610.8048630569705
aF0.0
aF0.0
aF0.0
aF0.0
aF0.0
aa(lp951
F607.8745207392622
aF613.4537446597375
aF0.0
aF0.0
aF0.0
aF0.0
aF0.0
aa(lp952
F607.2595571700624
aF615.9880703050432
aF0.0
aF0.0
aF0.0
aF0.0
aF0.0
aa(lp953
F606.3902913706866
aF618.8581668588243
aF0.0
aF0.0
aF0.0
aF0.0
aF0.0
aa(lp954
F605.6671693844072
aF622.1229116849074
aF0.0
aF0.0
aF0.0
aF0.0
aF0.0
aa(lp955
F605.4399567392851
aF623.1931002368988
aF0.0
aF0.0
aF0.0
aF0.0
aF0.0
aa(lp956
F604.9466463989078
aF626.1511629709297
aF0.0
aF0.0
aF0.0
aF0.0
aF0.0
aa(lp957
F604.4592337910702
aF629.074539040703
aF0.0
aF0.0
aF0.0
aF0.0
aF0.0
aa(lp958
F604.0157043117888
aF632.0403987770742
aF0.0
aF0.0
aF0.0
aF0.0
aF0.0
aa(lp959
F603.6305523884911
aF634.6155087423138
aF0.0
aF0.0
aF0.0
aF0.0
aF0.0
aa(lp960
F603.2495988510692
aF637.5870662880875
aF0.0
aF0.0
aF0.0
aF0.0
aF0.0
aa(lp961
F603.1309444693007
aF638.9836293611188
aF0.0
aF0.0
aF0.0
aF0.0
aF0.0
aa(lp962
F602.7699832455717
aF641.9606847931581
aF0.0
aF0.0
aF0.0
aF0.0
aF0.0
aa(lp963
F602.617142007388
aF643.2208003252341
aF0.0
aF0.0
aF0.0
aF0.0
aF0.0
aa(lp964
F604.3259850203056
aF643.6228457536023
aF0.0
aF0.0
aF0.0
aF0.0
aF0.0
aa(lp965
F605.0830939398633
aF643.5432763451038
aF0.0
aF0.0
aF0.0
aF0.0
aF0.0
aa(lp966
F608.9305147485316
aF638.7201306666437
aF0.0
aF0.0
aF0.0
aF0.0
aF0.0
aaa(lp967
(lp968
F585.5036215245274
aF309.034782517667
aF0.0
aF0.0
aF0.0
aF0.0
aF0.0
aa(lp969
F575.2465649842832
aF292.391481252868
aF0.0
aF0.0
aF0.0
aF0.0
aF0.0
aa(lp970
F573.6340849233663
aF290.5388935044971
aF0.0
aF0.0
aF0.0
aF0.0
aF0.0
aa(lp971
F571.2671949052406
aF288.69760141336275
aF0.0
aF0.0
aF0.0
aF0.0
aF0.0
aa(lp972
F569.6253261431947
aF287.4203924530791
aF0.0
aF0.0
aF0.0
aF0.0
aF0.0
aa(lp973
F566.8595894668915
aF286.2609382204479
aF0.0
aF0.0
aF0.0
aF0.0
aF0.0
aa(lp974
F564.4127301939932
aF285.23523256642346
aF0.0
aF0.0
aF0.0
aF0.0
aF0.0
aa(lp975
F561.4970511649918
aF284.53400216363804
aF0.0
aF0.0
aF0.0
aF0.0
aF0.0
aa(lp976
F558.5813721359903
aF283.8326717992841
aF0.0
aF0.0
aF0.0
aF0.0
aF0.0
aa(lp977
F558.4848092608527
aF283.8094807154001
aF0.0
aF0.0
aF0.0
aF0.0
aF0.0
aa(lp978
F555.5670310389133
aF283.11714689220815
aF0.0
aF0.0
aF0.0
aF0.0
aF0.0
aa(lp979
F554.3855852612197
aF282.83685465423093
aF0.0
aF0.0
aF0.0
aF0.0
aF0.0
aa(lp980
F551.4007328268401
aF282.54746591352335
aF0.0
aF0.0
aF0.0
aF0.0
aF0.0
aa(lp981
F548.4158803924605
aF282.25797721124724
aF0.0
aF0.0
aF0.0
aF0.0
aF0.0
aa(lp982
F544.8932347197366
aF282.1996996168319
aF0.0
aF0.0
aF0.0
aF0.0
aF0.0
aa(lp983
F543.0415466254818
aF282.19510138468246
aF0.0
aF0.0
aF0.0
aF0.0
aF0.0
aa(lp984
F540.0440990334755
aF282.28706602767073
aF0.0
aF0.0
aF0.0
aF0.0
aF0.0
aa(lp985
F537.0466514414694
aF282.37903067065895
aF0.0
aF0.0
aF0.0
aF0.0
aF0.0
aa(lp986
F535.2953247619539
aF282.43271003292494
aF0.0
aF0.0
aF0.0
aF0.0
aF0.0
aa(lp987
F532.3138710209022
aF282.7546862449523
aF0.0
aF0.0
aF0.0
aF0.0
aF0.0
aa(lp988
F529.332317318282
aF283.0765624954112
aF0.0
aF0.0
aF0.0
aF0.0
aF0.0
aa(lp989
F526.3507636156617
aF283.39853870743855
aF0.0
aF0.0
aF0.0
aF0.0
aF0.0
aa(lp990
F525.4974916672402
aF283.49060331199524
aF0.0
aF0.0
aF0.0
aF0.0
aF0.0
aa(lp991
F522.5327315081222
aF283.94133002420614
aF0.0
aF0.0
aF0.0
aF0.0
aF0.0
aa(lp992
F519.5678713874358
aF284.3919567748486
aF0.0
aF0.0
aF0.0
aF0.0
aF0.0
aa(lp993
F516.6031112283177
aF284.842583525491
aF0.0
aF0.0
aF0.0
aF0.0
aF0.0
aa(lp994
F515.1923536125644
aF285.05700108984945
aF0.0
aF0.0
aF0.0
aF0.0
aF0.0
aa(lp995
F512.2344908016703
aF285.5514110074798
aF0.0
aF0.0
aF0.0
aF0.0
aF0.0
aa(lp996
F509.27662799077643
aF286.04582092511015
aF0.0
aF0.0
aF0.0
aF0.0
aF0.0
aa(lp997
F507.3807568832599
aF286.36269909714576
aF0.0
aF0.0
aF0.0
aF0.0
aF0.0
aa(lp998
F504.4266926119677
aF286.8793004829754
aF0.0
aF0.0
aF0.0
aF0.0
aF0.0
aa(lp999
F501.47262834067556
aF287.39580190723666
aF0.0
aF0.0
aF0.0
aF0.0
aF0.0
aa(lp1000
F498.05574200738795
aF287.98057708275974
aF0.0
aF0.0
aF0.0
aF0.0
aF0.0
aa(lp1001
F495.0992786584526
aF288.48498315723657
aF0.0
aF0.0
aF0.0
aF0.0
aF0.0
aa(lp1002
F492.1355181150193
aF288.9422073713978
aF0.0
aF0.0
aF0.0
aF0.0
aF0.0
aa(lp1003
F489.6621690264776
aF289.32366071666206
aF0.0
aF0.0
aF0.0
aF0.0
aF0.0
aa(lp1004
F486.68701286423925
aF289.6997161372293
aF0.0
aF0.0
aF0.0
aF0.0
aF0.0
aa(lp1005
F484.7720490971458
aF289.94162313291577
aF0.0
aF0.0
aF0.0
aF0.0
aF0.0
aa(lp1006
F481.79149501021016
aF290.27199611669425
aF0.0
aF0.0
aF0.0
aF0.0
aF0.0
aa(lp1007
F479.67530860579564
aF290.50640599474576
aF0.0
aF0.0
aF0.0
aF0.0
aF0.0
aa(lp1008
F476.69695367336635
aF290.85677129221733
aF0.0
aF0.0
aF0.0
aF0.0
aF0.0
aa(lp1009
F473.71859874093707
aF291.2070366281204
aF0.0
aF0.0
aF0.0
aF0.0
aF0.0
aa(lp1010
F470.66587240156923
aF291.6322731403726
aF0.0
aF0.0
aF0.0
aF0.0
aF0.0
aa(lp1011
F467.69591424089117
aF292.0477134189152
aF0.0
aF0.0
aF0.0
aF0.0
aF0.0
aa(lp1012
F466.85793641244493
aF292.1648683771568
aF0.0
aF0.0
aF0.0
aF0.0
aF0.0
aa(lp1013
F463.9005734093935
aF292.6615774108618
aF0.0
aF0.0
aF0.0
aF0.0
aF0.0
aa(lp1014
F460.9431104447733
aF293.15828644456684
aF0.0
aF0.0
aF0.0
aF0.0
aF0.0
aa(lp1015
F459.76976155412535
aF293.35541065758076
aF0.0
aF0.0
aF0.0
aF0.0
aF0.0
aa(lp1016
F456.8142978208746
aF293.86361527165934
aF0.0
aF0.0
aF0.0
aF0.0
aF0.0
aa(lp1017
F453.8588340876239
aF294.3718198857379
aF0.0
aF0.0
aF0.0
aF0.0
aF0.0
aa(lp1018
F452.70197885577284
aF294.5707434069842
aF0.0
aF0.0
aF0.0
aF0.0
aF0.0
aa(lp1019
F449.7403175052772
aF295.04146243288824
aF0.0
aF0.0
aF0.0
aF0.0
aF0.0
aa(lp1020
F446.7786561547815
aF295.5122814203607
aF0.0
aF0.0
aF0.0
aF0.0
aF0.0
aa(lp1021
F445.94467678907404
aF295.6448304601459
aF0.0
aF0.0
aF0.0
aF0.0
aF0.0
aa(lp1022
F443.0030077522714
aF296.22760640429976
aF0.0
aF0.0
aF0.0
aF0.0
aF0.0
aa(lp1023
F440.061338715469
aF296.8102823868851
aF0.0
aF0.0
aF0.0
aF0.0
aF0.0
aa(lp1024
F436.762007186697
aF297.6880449195806
aF0.0
aF0.0
aF0.0
aF0.0
aF0.0
aa(lp1025
F433.8710186651065
aF298.484838581819
aF0.0
aF0.0
aF0.0
aF0.0
aF0.0
aa(lp1026
F430.97993018194757
aF299.28173220562593
aF0.0
aF0.0
aF0.0
aF0.0
aF0.0
aa(lp1027
F429.6000606908499
aF299.6620859736371
aF0.0
aF0.0
aF0.0
aF0.0
aF0.0
aa(lp1028
F426.783743460903
aF300.69218993667397
aF0.0
aF0.0
aF0.0
aF0.0
aF0.0
aa(lp1029
F424.70144402819847
aF301.4537971268126
aF0.0
aF0.0
aF0.0
aF0.0
aF0.0
aa(lp1030
F421.9291098883764
aF302.5970575853524
aF0.0
aF0.0
aF0.0
aF0.0
aF0.0
aa(lp1031
F420.3733080367797
aF303.2386109317639
aF0.0
aF0.0
aF0.0
aF0.0
aF0.0
aa(lp1032
F417.61246947733116
aF304.40936082163176
aF0.0
aF0.0
aF0.0
aF0.0
aF0.0
aa(lp1033
F415.9472097082645
aF305.1155893028405
aF0.0
aF0.0
aF0.0
aF0.0
aF0.0
aa(lp1034
F413.1596814100358
aF306.22156409634266
aF0.0
aF0.0
aF0.0
aF0.0
aF0.0
aa(lp1035
F410.789392698582
aF307.1620025324661
aF0.0
aF0.0
aF0.0
aF0.0
aF0.0
aa(lp1036
F408.90531705614444
aF307.7523755558233
aF0.0
aF0.0
aF0.0
aF0.0
aF0.0
aa(lp1037
F403.7509987013584
aF308.7905764059058
aF0.0
aF0.0
aF0.0
aF0.0
aF0.0
aa(lp1038
F400.82492366923645
aF309.4470240260187
aF0.0
aF0.0
aF0.0
aF0.0
aF0.0
aa(lp1039
F397.89874867554613
aF310.1033716845632
aF0.0
aF0.0
aF0.0
aF0.0
aF0.0
aa(lp1040
F394.9592787932498
aF311.02171861405566
aF0.0
aF0.0
aF0.0
aF0.0
aF0.0
aa(lp1041
F392.7263372768676
aF311.72484828664193
aF0.0
aF0.0
aF0.0
aF0.0
aF0.0
aa(lp1042
F389.9104198931948
aF312.75615178850035
aF0.0
aF0.0
aF0.0
aF0.0
aF0.0
aa(lp1043
F386.233833405034
aF314.1603119407351
aF0.0
aF0.0
aF0.0
aF0.0
aF0.0
aa(lp1044
F385.15694742795523
aF314.7780744338518
aF0.0
aF0.0
aF0.0
aF0.0
aF0.0
aa(lp1045
F384.1476354711591
aF314.83745160552036
aF0.0
aF0.0
aF0.0
aF0.0
aF0.0
aa(lp1046
F380.9956472943053
aF315.0228803150239
aF0.0
aF0.0
aF0.0
aF0.0
aF0.0
aa(lp1047
F377.51028728661896
aF315.27908181500095
aF0.0
aF0.0
aF0.0
aF0.0
aF0.0
aa(lp1048
F376.1495104550982
aF315.38244207679423
aF0.0
aF0.0
aF0.0
aF0.0
aF0.0
aa(lp1049
F373.1514630936812
aF315.3117692478892
aF0.0
aF0.0
aF0.0
aF0.0
aF0.0
aa(lp1050
F370.34834079077183
aF315.2456946511334
aF0.0
aF0.0
aF0.0
aF0.0
aF0.0
aa(lp1051
F367.6106933152074
aF314.02166524527354
aF0.0
aF0.0
aF0.0
aF0.0
aF0.0
aa(lp1052
F366.8792745187454
aF313.69459099325445
aF0.0
aF0.0
aF0.0
aF0.0
aF0.0
aa(lp1053
F365.6439494556489
aF313.26355671003125
aF0.0
aF0.0
aF0.0
aF0.0
aF0.0
aa(lp1054
F364.11793615145467
aF313.2425647806535
aF0.0
aF0.0
aF0.0
aF0.0
aF0.0
aa(lp1055
F361.1720687287766
aF312.6811806121513
aF0.0
aF0.0
aF0.0
aF0.0
aF0.0
aa(lp1056
F358.5165896624908
aF311.48883902349485
aF0.0
aF0.0
aF0.0
aF0.0
aF0.0
aa(lp1057
F353.99752707530286
aF308.8287617250597
aF0.0
aF0.0
aF0.0
aF0.0
aF0.0
aa(lp1058
F351.34644631802956
aF307.427000650468
aF0.0
aF0.0
aF0.0
aF0.0
aF0.0
aa(lp1059
F348.6953655607562
aF306.02523957587647
aF0.0
aF0.0
aF0.0
aF0.0
aF0.0
aa(lp1060
F347.12356985820486
aF305.19415909565436
aF0.0
aF0.0
aF0.0
aF0.0
aF0.0
aa(lp1061
F344.4068143504497
aF303.92434729143724
aF0.0
aF0.0
aF0.0
aF0.0
aF0.0
aa(lp1062
F341.69015880426304
aF302.6545354872201
aF0.0
aF0.0
aF0.0
aF0.0
aF0.0
aa(lp1063
F341.44505303838565
aF302.5399795297586
aF0.0
aF0.0
aF0.0
aF0.0
aF0.0
aa(lp1064
F338.706505908705
aF301.31784939369953
aF0.0
aF0.0
aF0.0
aF0.0
aF0.0
aa(lp1065
F335.9679587790244
aF300.09571925764044
aF0.0
aF0.0
aF0.0
aF0.0
aF0.0
aa(lp1066
F333.95063436582234
aF298.98754530963197
aF0.0
aF0.0
aF0.0
aF0.0
aF0.0
aa(lp1067
F331.1756012636518
aF297.40945202826725
aF0.0
aF0.0
aF0.0
aF0.0
aF0.0
aa(lp1068
F328.7556316526707
aF295.6383329581957
aF0.0
aF0.0
aF0.0
aF0.0
aF0.0
aa(lp1069
F326.33566204168966
aF293.86721388812407
aF0.0
aF0.0
aF0.0
aF0.0
aF0.0
aa(lp1070
F325.23788409680157
aF293.0638227623669
aF0.0
aF0.0
aF0.0
aF0.0
aF0.0
aa(lp1071
F320.8779603266107
aF288.9452062184517
aF0.0
aF0.0
aF0.0
aF0.0
aF0.0
aa(lp1072
F318.69799844151527
aF286.88589794649414
aF0.0
aF0.0
aF0.0
aF0.0
aF0.0
aa(lp1073
F318.18149701725406
aF286.3979855308141
aF0.0
aF0.0
aF0.0
aF0.0
aF0.0
aa(lp1074
F316.0212275611463
aF284.31808517575257
aF0.0
aF0.0
aF0.0
aF0.0
aF0.0
aa(lp1075
F313.8608581434701
aF282.23818482069106
aF0.0
aF0.0
aF0.0
aF0.0
aF0.0
aa(lp1076
F311.7005886873623
aF280.1581845040611
aF0.0
aF0.0
aF0.0
aF0.0
aF0.0
aa(lp1077
F309.54021926968613
aF278.07828414899967
aF0.0
aF0.0
aF0.0
aF0.0
aF0.0
aa(lp1078
F308.9042637711087
aF277.46591958057996
aF0.0
aF0.0
aF0.0
aF0.0
aF0.0
aa(lp1079
F306.71140684368123
aF275.4203060435022
aF0.0
aF0.0
aF0.0
aF0.0
aF0.0
aa(lp1080
F304.51864987782216
aF273.3745925448559
aF0.0
aF0.0
aF0.0
aF0.0
aF0.0
aa(lp1081
F302.32589291196314
aF271.32887904620964
aF0.0
aF0.0
aF0.0
aF0.0
aF0.0
aa(lp1082
F300.1330359845356
aF269.2832655091318
aF0.0
aF0.0
aF0.0
aF0.0
aF0.0
aa(lp1083
F297.6094062270558
aF267.0954066601276
aF0.0
aF0.0
aF0.0
aF0.0
aF0.0
aa(lp1084
F295.33538050603437
aF265.14045826564796
aF0.0
aF0.0
aF0.0
aF0.0
aF0.0
aa(lp1085
F293.0613547850129
aF263.18550987116834
aF0.0
aF0.0
aF0.0
aF0.0
aF0.0
aa(lp1086
F292.37261957828565
aF262.5934375011472
aF0.0
aF0.0
aF0.0
aF0.0
aF0.0
aa(lp1087
F290.08419939140515
aF260.6554825733067
aF0.0
aF0.0
aF0.0
aF0.0
aF0.0
aa(lp1088
F287.79567924295617
aF258.71742768389777
aF0.0
aF0.0
aF0.0
aF0.0
aF0.0
aa(lp1089
F285.89261090251006
aF257.10584727709715
aF0.0
aF0.0
aF0.0
aF0.0
aF0.0
aa(lp1090
F283.71314882525695
aF255.04603919729715
aF0.0
aF0.0
aF0.0
aF0.0
aF0.0
aa(lp1091
F281.53368674800384
aF252.98623111749723
aF0.0
aF0.0
aF0.0
aF0.0
aF0.0
aa(lp1092
F279.79015707082874
aF251.33836466134358
aF0.0
aF0.0
aF0.0
aF0.0
aF0.0
aa(lp1093
F277.8349087916437
aF247.41787194612706
aF0.0
aF0.0
aF0.0
aF0.0
aF0.0
aaa(lp1094
(lp1095
F608.5474620181718
aF635.4152012900377
aF0.0
aF0.0
aF0.0
aF0.0
aF0.0
aa(lp1096
F608.4422024865776
aF637.0771623273448
aF0.0
aF0.0
aF0.0
aF0.0
aF0.0
aa(lp1097
F608.9305147485316
aF638.7201306666437
aF0.0
aF0.0
aF0.0
aF0.0
aF0.0
aa(lp1098
F608.728092572389
aF640.3629990443741
aF0.0
aF0.0
aF0.0
aF0.0
aF0.0
aa(lp1099
F608.5489614416988
aF641.8170400192732
aF0.0
aF0.0
aF0.0
aF0.0
aF0.0
aa(lp1100
F608.8477465698421
aF644.6233610923734
aF0.0
aF0.0
aF0.0
aF0.0
aF0.0
aa(lp1101
F609.6890231300478
aF645.7038456859168
aF0.0
aF0.0
aF0.0
aF0.0
aF0.0
aa(lp1102
F610.58327932154
aF646.1822617525927
aF0.0
aF0.0
aF0.0
aF0.0
aF0.0
aa(lp1103
F611.7554286733664
aF646.7846301641657
aF0.0
aF0.0
aF0.0
aF0.0
aF0.0
aa(lp1104
F614.6491161573055
aF645.9976327356369
aF0.0
aF0.0
aF0.0
aF0.0
aF0.0
aa(lp1105
F616.527394028772
aF645.4868291207782
aF0.0
aF0.0
aF0.0
aF0.0
aF0.0
aa(lp1106
F619.1447877374725
aF644.0229919121696
aF0.0
aF0.0
aF0.0
aF0.0
aF0.0
aa(lp1107
F620.822042894755
aF643.0849525536894
aF0.0
aF0.0
aF0.0
aF0.0
aF0.0
aa(lp1108
F623.2621047809976
aF641.3417227612197
aF0.0
aF0.0
aF0.0
aF0.0
aF0.0
aa(lp1109
F625.7022666288087
aF639.5983930071816
aF0.0
aF0.0
aF0.0
aF0.0
aF0.0
aa(lp1110
F625.9152847312088
aF639.446251499977
aF0.0
aF0.0
aF0.0
aF0.0
aF0.0
aa(lp1111
F628.0263730956314
aF637.3163703606829
aF0.0
aF0.0
aF0.0
aF0.0
aF0.0
aa(lp1112
F629.4767154924973
aF635.853132921485
aF0.0
aF0.0
aF0.0
aF0.0
aF0.0
aa(lp1113
F630.4669347897164
aF634.5848205407948
aF0.0
aF0.0
aF0.0
aF0.0
aF0.0
aa(lp1114
F631.5203297982058
aF631.7771000057361
aF0.0
aF0.0
aF0.0
aF0.0
aF0.0
aa(lp1115
F631.8045205373531
aF629.9586991137803
aF0.0
aF0.0
aF0.0
aF0.0
aF0.0
aa(lp1116
F631.9693571637526
aF628.9440891938555
aF0.0
aF0.0
aF0.0
aF0.0
aF0.0
aa(lp1117
F631.9580615065161
aF626.8416974858893
aF0.0
aF0.0
aF0.0
aF0.0
aF0.0
aa(lp1118
F631.733847708448
aF623.8512472036757
aF0.0
aF0.0
aF0.0
aF0.0
aF0.0
aa(lp1119
F631.60929559414
aF622.1903857436215
aF0.0
aF0.0
aF0.0
aF0.0
aF0.0
aa(lp1120
F631.3000145013078
aF619.2075325406113
aF0.0
aF0.0
aF0.0
aF0.0
aF0.0
aa(lp1121
F631.0719022020696
aF617.0077782649596
aF0.0
aF0.0
aF0.0
aF0.0
aF0.0
aa(lp1122
F630.610279678896
aF614.0447174525056
aF0.0
aF0.0
aF0.0
aF0.0
aF0.0
aa(lp1123
F629.8746624965585
aF610.5783501428276
aF0.0
aF0.0
aF0.0
aF0.0
aF0.0
aa(lp1124
F629.2506024246283
aF607.6451778393447
aF0.0
aF0.0
aF0.0
aF0.0
aF0.0
aa(lp1125
F629.1427438922541
aF607.1382727256562
aF0.0
aF0.0
aF0.0
aF0.0
aF0.0
aa(lp1126
F628.857553537422
aF604.1530204450028
aF0.0
aF0.0
aF0.0
aF0.0
aF0.0
aa(lp1127
F628.7667884332552
aF603.203485506149
aF0.0
aF0.0
aF0.0
aF0.0
aF0.0
aa(lp1128
F628.9947008093567
aF600.2133351086408
aF0.0
aF0.0
aF0.0
aF0.0
aF0.0
aa(lp1129
F629.0830668358801
aF599.0546805685573
aF0.0
aF0.0
aF0.0
aF0.0
aF0.0
aa(lp1130
F629.3644586511106
aF596.0690284416299
aF0.0
aF0.0
aF0.0
aF0.0
aF0.0
aa(lp1131
F629.5247970069291
aF594.3671827385049
aF0.0
aF0.0
aF0.0
aF0.0
aF0.0
aa(lp1132
F629.8941550024092
aF590.3082432509638
aF0.0
aF0.0
aF0.0
aF0.0
aF0.0
aa(lp1133
F631.1825596583608
aF587.6003843228019
aF0.0
aF0.0
aF0.0
aF0.0
aF0.0
aa(lp1134
F631.3086111961959
aF587.3354861663684
aF0.0
aF0.0
aF0.0
aF0.0
aF0.0
aa(lp1135
F632.235254935871
aF585.8041748990456
aF0.0
aF0.0
aF0.0
aF0.0
aF0.0
aa(lp1136
F632.3182230376974
aF583.8406298096779
aF0.0
aF0.0
aF0.0
aF0.0
aF0.0
aa(lp1137
F632.0371311071723
aF581.9106718073147
aF0.0
aF0.0
aF0.0
aF0.0
aF0.0
aa(lp1138
F630.4074576564793
aF579.1727244470447
aF0.0
aF0.0
aF0.0
aF0.0
aF0.0
aa(lp1139
F629.7563079994952
aF576.0028431494355
aF0.0
aF0.0
aF0.0
aF0.0
aF0.0
aa(lp1140
F629.4770153772026
aF572.6118468623807
aF0.0
aF0.0
aF0.0
aF0.0
aF0.0
aa(lp1141
F629.2794913179148
aF569.6194973103662
aF0.0
aF0.0
aF0.0
aF0.0
aF0.0
aa(lp1142
F629.0819672586271
aF566.6271477583517
aF0.0
aF0.0
aF0.0
aF0.0
aF0.0
aa(lp1143
F629.035785013996
aF565.9272168559564
aF0.0
aF0.0
aF0.0
aF0.0
aF0.0
aa(lp1144
F628.9548161435389
aF562.9294693792447
aF0.0
aF0.0
aF0.0
aF0.0
aF0.0
aa(lp1145
F628.8737473115134
aF559.931721902533
aF0.0
aF0.0
aF0.0
aF0.0
aF0.0
aa(lp1146
F628.7927784410564
aF556.9339744258214
aF0.0
aF0.0
aF0.0
aF0.0
aF0.0
aa(lp1147
F628.7116096474624
aF553.9362269491098
aF0.0
aF0.0
aF0.0
aF0.0
aF0.0
aa(lp1148
F628.6306407770054
aF550.9384794723982
aF0.0
aF0.0
aF0.0
aF0.0
aF0.0
aa(lp1149
F628.5596680633948
aF548.3125890303781
aF0.0
aF0.0
aF0.0
aF0.0
aF0.0
aa(lp1150
F628.4486107608298
aF545.3157412077826
aF0.0
aF0.0
aF0.0
aF0.0
aF0.0
aa(lp1151
F628.3374534966961
aF542.3189933467556
aF0.0
aF0.0
aF0.0
aF0.0
aF0.0
aa(lp1152
F628.2263961941309
aF539.3222454857287
aF0.0
aF0.0
aF0.0
aF0.0
aF0.0
aa(lp1153
F628.1153388915657
aF536.3253976631333
aF0.0
aF0.0
aF0.0
aF0.0
aF0.0
aa(lp1154
F628.0041816274321
aF533.3286498021062
aF0.0
aF0.0
aF0.0
aF0.0
aF0.0
aa(lp1155
F627.9292104510829
aF531.3055276179332
aF0.0
aF0.0
aF0.0
aF0.0
aF0.0
aa(lp1156
F627.7755695203515
aF528.310679026707
aF0.0
aF0.0
aF0.0
aF0.0
aF0.0
aa(lp1157
F626.7450657110408
aF523.3901707805617
aF0.0
aF0.0
aF0.0
aF0.0
aF0.0
aa(lp1158
F626.6667958029323
aF521.0148839906847
aF0.0
aF0.0
aF0.0
aF0.0
aF0.0
aa(lp1159
F626.5823282775789
aF518.44597164269
aF0.0
aF0.0
aF0.0
aF0.0
aF0.0
aa(lp1160
F626.6768919213472
aF515.4486240122523
aF0.0
aF0.0
aF0.0
aF0.0
aF0.0
aa(lp1161
F626.7443659800615
aF513.3085467929745
aF0.0
aF0.0
aF0.0
aF0.0
aF0.0
aa(lp1162
F626.9445890016979
aF510.3163971640969
aF0.0
aF0.0
aF0.0
aF0.0
aF0.0
aa(lp1163
F627.0567458815161
aF508.63904204524596
aF0.0
aF0.0
aF0.0
aF0.0
aF0.0
aa(lp1164
F626.8273340818878
aF505.64899160930617
aF0.0
aF0.0
aF0.0
aF0.0
aF0.0
aa(lp1165
F626.7953463799789
aF505.23285159978434
aF0.0
aF0.0
aF0.0
aF0.0
aF0.0
aa(lp1166
F626.9989680949432
aF502.24090189404365
aF0.0
aF0.0
aF0.0
aF0.0
aF0.0
aa(lp1167
F627.2026897714759
aF499.2490521498715
aF0.0
aF0.0
aF0.0
aF0.0
aF0.0
aa(lp1168
F627.03825299135
aF496.1468448341135
aF0.0
aF0.0
aF0.0
aF0.0
aF0.0
aa(lp1169
F626.866019208884
aF493.14269981702
aF0.0
aF0.0
aF0.0
aF0.0
aF0.0
aa(lp1170
F625.839513862312
aF490.32508308668315
aF0.0
aF0.0
aF0.0
aF0.0
aF0.0
aa(lp1171
F625.3318090560756
aF488.93161882227423
aF0.0
aF0.0
aF0.0
aF0.0
aF0.0
aa(lp1172
F623.4261417148496
aF486.6161090503396
aF0.0
aF0.0
aF0.0
aF0.0
aF0.0
aa(lp1173
F622.5784676142621
aF485.5861050488711
aF0.0
aF0.0
aF0.0
aF0.0
aF0.0
aa(lp1174
F619.4744609902716
aF483.5054050012619
aF0.0
aF0.0
aF0.0
aF0.0
aF0.0
aa(lp1175
F617.7432265860178
aF481.0567464201313
aF0.0
aF0.0
aF0.0
aF0.0
aF0.0
aa(lp1176
F617.0653871902533
aF480.0979150554103
aF0.0
aF0.0
aF0.0
aF0.0
aF0.0
aa(lp1177
F616.0178899143034
aF478.6162846876147
aF0.0
aF0.0
aF0.0
aF0.0
aF0.0
aa(lp1178
F615.0838490185619
aF475.76658029380053
aF0.0
aF0.0
aF0.0
aF0.0
aF0.0
aa(lp1179
F614.1498081228203
aF472.9168758999862
aF0.0
aF0.0
aF0.0
aF0.0
aF0.0
aa(lp1180
F613.2157672270788
aF470.06727146774045
aF0.0
aF0.0
aF0.0
aF0.0
aF0.0
aa(lp1181
F612.4078778307406
aF467.60241911251836
aF0.0
aF0.0
aF0.0
aF0.0
aF0.0
aa(lp1182
F612.064809727767
aF464.6233644491098
aF0.0
aF0.0
aF0.0
aF0.0
aF0.0
aa(lp1183
F611.721841586362
aF461.6441098625643
aF0.0
aF0.0
aF0.0
aF0.0
aF0.0
aa(lp1184
F611.3787734833885
aF458.66495523758715
aF0.0
aF0.0
aF0.0
aF0.0
aF0.0
aa(lp1185
F611.0358053419833
aF455.68580061261014
aF0.0
aF0.0
aF0.0
aF0.0
aF0.0
aa(lp1186
F610.6927372390098
aF452.70664598763307
aF0.0
aF0.0
aF0.0
aF0.0
aF0.0
aa(lp1187
F610.3497690976046
aF449.72749136265605
aF0.0
aF0.0
aF0.0
aF0.0
aF0.0
aa(lp1188
F610.2126218256699
aF448.5363493128212
aF0.0
aF0.0
aF0.0
aF0.0
aF0.0
aa(lp1189
F609.86475556741
aF445.55769449568646
aF0.0
aF0.0
aF0.0
aF0.0
aF0.0
aa(lp1190
F609.5168893091502
aF442.5791396401202
aF0.0
aF0.0
aF0.0
aF0.0
aF0.0
aa(lp1191
F609.1690230508902
aF439.6004848229855
aF0.0
aF0.0
aF0.0
aF0.0
aF0.0
aa(lp1192
F608.8211567926304
aF436.62192996741925
aF0.0
aF0.0
aF0.0
aF0.0
aF0.0
aa(lp1193
F608.4732905343704
aF433.6432751502845
aF0.0
aF0.0
aF0.0
aF0.0
aF0.0
aa(lp1194
F608.1254242761106
aF430.6647202947182
aF0.0
aF0.0
aF0.0
aF0.0
aF0.0
aa(lp1195
F607.7775580178505
aF427.68606547758355
aF0.0
aF0.0
aF0.0
aF0.0
aF0.0
aa(lp1196
F607.6684999466546
aF426.7519246202735
aF0.0
aF0.0
aF0.0
aF0.0
aF0.0
aa(lp1197
F607.1578962549331
aF423.7968607332966
aF0.0
aF0.0
aF0.0
aF0.0
aF0.0
aa(lp1198
F606.6472925632113
aF420.8417968463197
aF0.0
aF0.0
aF0.0
aF0.0
aF0.0
aa(lp1199
F606.1366888714896
aF417.88673295934285
aF0.0
aF0.0
aF0.0
aF0.0
aF0.0
aa(lp1200
F605.6260851797679
aF414.931669072366
aF0.0
aF0.0
aF0.0
aF0.0
aF0.0
aa(lp1201
F605.3764811433095
aF413.4874243311766
aF0.0
aF0.0
aF0.0
aF0.0
aF0.0
aa(lp1202
F604.5165117698009
aF410.61452885347836
aF0.0
aF0.0
aF0.0
aF0.0
aF0.0
aa(lp1203
F603.6565423962923
aF407.7416333757801
aF0.0
aF0.0
aF0.0
aF0.0
aF0.0
aa(lp1204
F603.2795873216089
aF406.4824174978203
aF0.0
aF0.0
aF0.0
aF0.0
aF0.0
aa(lp1205
F602.2559808605222
aF404.03665780217517
aF0.0
aF0.0
aF0.0
aF0.0
aF0.0
aa(lp1206
F601.6169265533223
aF399.86696089677406
aF0.0
aF0.0
aF0.0
aF0.0
aF0.0
aa(lp1207
F601.1880914246053
aF396.89890200589673
aF0.0
aF0.0
aF0.0
aF0.0
aF0.0
aa(lp1208
F601.003762292355
aF395.62349235384545
aF0.0
aF0.0
aF0.0
aF0.0
aF0.0
aa(lp1209
F600.756357410403
aF392.6348413798642
aF0.0
aF0.0
aF0.0
aF0.0
aF0.0
aa(lp1210
F600.5082527974715
aF389.6374937494263
aF0.0
aF0.0
aF0.0
aF0.0
aF0.0
aa(lp1211
F600.5805250114721
aF387.4481354768953
aF0.0
aF0.0
aF0.0
aF0.0
aF0.0
aa(lp1212
F600.4192870015372
aF384.4535867703745
aF0.0
aF0.0
aF0.0
aF0.0
aF0.0
aa(lp1213
F600.2581489531708
aF381.45913802542213
aF0.0
aF0.0
aF0.0
aF0.0
aF0.0
aa(lp1214
F600.1015091753854
aF378.5507561909187
aF0.0
aF0.0
aF0.0
aF0.0
aF0.0
aa(lp1215
F599.7798328480635
aF375.5693024498669
aF0.0
aF0.0
aF0.0
aF0.0
aF0.0
aa(lp1216
F599.7578413030011
aF375.3651809270604
aF0.0
aF0.0
aF0.0
aF0.0
aF0.0
aa(lp1217
F599.3962803098614
aF372.38822545658957
aF0.0
aF0.0
aF0.0
aF0.0
aF0.0
aa(lp1218
F599.0346193551533
aF369.4112699861188
aF0.0
aF0.0
aF0.0
aF0.0
aF0.0
aa(lp1219
F598.6730583620136
aF366.43431451564794
aF0.0
aF0.0
aF0.0
aF0.0
aF0.0
aa(lp1220
F598.3098979837785
aF363.44406415657124
aF0.0
aF0.0
aF0.0
aF0.0
aF0.0
aa(lp1221
F598.2852074763674
aF360.4454170257434
aF0.0
aF0.0
aF0.0
aF0.0
aF0.0
aa(lp1222
F598.2605169689565
aF357.4466699333471
aF0.0
aF0.0
aF0.0
aF0.0
aF0.0
aa(lp1223
F598.244523118002
aF355.5012178878717
aF0.0
aF0.0
aF0.0
aF0.0
aF0.0
aa(lp1224
F598.2556188521017
aF352.502370833907
aF0.0
aF0.0
aF0.0
aF0.0
aF0.0
aa(lp1225
F598.2667145862013
aF349.50362374151064
aF0.0
aF0.0
aF0.0
aF0.0
aF0.0
aa(lp1226
F598.277810320301
aF346.50477668754587
aF0.0
aF0.0
aF0.0
aF0.0
aF0.0
aa(lp1227
F598.2889060544006
aF343.5059296335811
aF0.0
aF0.0
aF0.0
aF0.0
aF0.0
aa(lp1228
F598.2999018269319
aF340.5070825796164
aF0.0
aF0.0
aF0.0
aF0.0
aF0.0
aa(lp1229
F598.3031005971228
aF339.65191136139407
aF0.0
aF0.0
aF0.0
aF0.0
aF0.0
aa(lp1230
F597.7422162364629
aF336.70594397714757
aF0.0
aF0.0
aF0.0
aF0.0
aF0.0
aa(lp1231
F597.1811319526661
aF333.76007655446955
aF0.0
aF0.0
aF0.0
aF0.0
aF0.0
aa(lp1232
F596.6201476304377
aF330.81410917022305
aF0.0
aF0.0
aF0.0
aF0.0
aF0.0
aa(lp1233
F596.0592632697778
aF327.86824174754497
aF0.0
aF0.0
aF0.0
aF0.0
aF0.0
aa(lp1234
F595.7668756820163
aF326.3329320174835
aF0.0
aF0.0
aF0.0
aF0.0
aF0.0
aa(lp1235
F594.45727917355
aF323.6351692077368
aF0.0
aF0.0
aF0.0
aF0.0
aF0.0
aa(lp1236
F593.147782626652
aF320.93740639799006
aF0.0
aF0.0
aF0.0
aF0.0
aF0.0
aa(lp1237
F591.8381861181856
aF318.23954362667496
aF0.0
aF0.0
aF0.0
aF0.0
aF0.0
aa(lp1238
F590.7084204713885
aF315.91223838966135
aF0.0
aF0.0
aF0.0
aF0.0
aF0.0
aa(lp1239
F588.8988161974578
aF313.52095774882986
aF0.0
aF0.0
aF0.0
aF0.0
aF0.0
aa(lp1240
F587.0891119619586
aF311.12967710799836
aF0.0
aF0.0
aF0.0
aF0.0
aF0.0
aa(lp1241
F585.5036215245274
aF309.034782517667
aF0.0
aF0.0
aF0.0
aF0.0
aF0.0
aa(lp1242
F584.582075824844
aF307.7049937723706
aF0.0
aF0.0
aF0.0
aF0.0
aF0.0
aa(lp1243
F584.1632368529736
aF307.2064854304332
aF0.0
aF0.0
aF0.0
aF0.0
aF0.0
aa(lp1244
F582.2208836161207
aF304.89437435182634
aF0.0
aF0.0
aF0.0
aF0.0
aF0.0
aa(lp1245
F580.8849972151478
aF303.30428568224573
aF0.0
aF0.0
aF0.0
aF0.0
aF0.0
aa(lp1246
F578.6913405951725
aF301.3579339826542
aF0.0
aF0.0
aF0.0
aF0.0
aF0.0
aa(lp1247
F577.086657536596
aF299.7764420079617
aF0.0
aF0.0
aF0.0
aF0.0
aF0.0
aa(lp1248
F576.6317324385095
aF299.2114592229947
aF0.0
aF0.0
aF0.0
aF0.0
aF0.0
aa(lp1249
F575.7189833568511
aF298.077895036596
aF0.0
aF0.0
aF0.0
aF0.0
aF0.0
aa(lp1250
F574.3561073323926
aF296.13514195346914
aF0.0
aF0.0
aF0.0
aF0.0
aF0.0
aaa(lp1251
(lp1252
F269.28589557176946
aF256.00007240673176
aF0.0
aF0.0
aF0.0
aF0.0
aF0.0
aa(lp1253
F266.28894778760554
aF255.89451299043225
aF0.0
aF0.0
aF0.0
aF0.0
aF0.0
aa(lp1254
F265.22255777521565
aF255.85692744068925
aF0.0
aF0.0
aF0.0
aF0.0
aF0.0
aa(lp1255
F262.9783206015969
aF253.8677921897944
aF0.0
aF0.0
aF0.0
aF0.0
aF0.0
aa(lp1256
F261.85055418616923
aF252.86817650513944
aF0.0
aF0.0
aF0.0
aF0.0
aF0.0
aa(lp1257
F257.9684467132434
aF249.74117872040193
aF0.0
aF0.0
aF0.0
aF0.0
aF0.0
aa(lp1258
F258.47085355635096
aF248.50385442593608
aF0.0
aF0.0
aF0.0
aF0.0
aF0.0
aa(lp1259
F260.2237796209618
aF246.07068988791758
aF0.0
aF0.0
aF0.0
aF0.0
aF0.0
aa(lp1260
F260.9070169414235
aF245.12225452631702
aF0.0
aF0.0
aF0.0
aF0.0
aF0.0
aa(lp1261
F262.4112386236922
aF243.6106356879818
aF0.0
aF0.0
aF0.0
aF0.0
aF0.0
aa(lp1262
F263.8223960857195
aF240.96455300913178
aF0.0
aF0.0
aF0.0
aF0.0
aF0.0
aa(lp1263
F264.17616007651895
aF240.07059670234497
aF0.0
aF0.0
aF0.0
aF0.0
aF0.0
aa(lp1264
F265.1971675368255
aF237.0464593715584
aF0.0
aF0.0
aF0.0
aF0.0
aF0.0
aa(lp1265
F265.70847095952644
aF234.78392923091042
aF0.0
aF0.0
aF0.0
aF0.0
aF0.0
aa(lp1266
F266.0763295314795
aF233.12926538810115
aF0.0
aF0.0
aF0.0
aF0.0
aF0.0
aa(lp1267
F266.98538003510464
aF230.27156406880968
aF0.0
aF0.0
aF0.0
aF0.0
aF0.0
aa(lp1268
F267.46769460295064
aF228.7554469598935
aF0.0
aF0.0
aF0.0
aF0.0
aF0.0
aa(lp1269
F268.848363786596
aF226.0932704685206
aF0.0
aF0.0
aF0.0
aF0.0
aF0.0
aa(lp1270
F270.1094789343566
aF223.6615053924605
aF0.0
aF0.0
aF0.0
aF0.0
aF0.0
aa(lp1271
F271.8162227543364
aF221.19575338312222
aF0.0
aF0.0
aF0.0
aF0.0
aF0.0
aa(lp1272
F273.4075109627386
aF218.89693719312132
aF0.0
aF0.0
aF0.0
aF0.0
aF0.0
aa(lp1273
F275.93573626154483
aF216.0579788067569
aF0.0
aF0.0
aF0.0
aF0.0
aF0.0
aa(lp1274
F276.46882070667584
aF215.40733040234866
aF0.0
aF0.0
aF0.0
aF0.0
aF0.0
aa(lp1275
F277.4231987040043
aF214.6321278747884
aF0.0
aF0.0
aF0.0
aF0.0
aF0.0
aa(lp1276
F279.10912728055763
aF213.26271649115552
aF0.0
aF0.0
aF0.0
aF0.0
aF0.0
aa(lp1277
F280.795055857111
aF211.89330510752262
aF0.0
aF0.0
aF0.0
aF0.0
aF0.0
aa(lp1278
F281.2919606963867
aF211.45465461790937
aF0.0
aF0.0
aF0.0
aF0.0
aF0.0
aa(lp1279
F281.8872186517037
aF211.0289208846553
aF0.0
aF0.0
aF0.0
aF0.0
aF0.0
aa(lp1280
F283.23174690456347
aF210.42927629530615
aF0.0
aF0.0
aF0.0
aF0.0
aF0.0
aa(lp1281
F285.2154192950162
aF209.5445805565247
aF0.0
aF0.0
aF0.0
aF0.0
aF0.0
aa(lp1282
F286.55643196367515
aF209.1770336773466
aF0.0
aF0.0
aF0.0
aF0.0
aF0.0
aa(lp1283
F287.87974915712596
aF208.53994961769854
aF0.0
aF0.0
aF0.0
aF0.0
aF0.0
aa(lp1284
F289.83677664836796
aF207.59777866644524
aF0.0
aF0.0
aF0.0
aF0.0
aF0.0
aa(lp1285
F292.3484350222971
aF209.2422465502635
aF0.0
aF0.0
aF0.0
aF0.0
aF0.0
aaa(lp1286
(lp1287
F210.81617502179694
aF285.05520178161714
aF0.0
aF0.0
aF0.0
aF0.0
aF0.0
aa(lp1288
F211.43443732275614
aF284.11276411412445
aF0.0
aF0.0
aF0.0
aF0.0
aF0.0
aa(lp1289
F211.81299178253488
aF283.2903802903589
aF0.0
aF0.0
aF0.0
aF0.0
aF0.0
aa(lp1290
F212.32889343738532
aF282.0981386632709
aF0.0
aF0.0
aF0.0
aF0.0
aF0.0
aa(lp1291
F213.0282245703699
aF280.90579707461455
aF0.0
aF0.0
aF0.0
aF0.0
aF0.0
aa(lp1292
F214.29353810400607
aF279.3929786974578
aF0.0
aF0.0
aF0.0
aF0.0
aF0.0
aa(lp1293
F216.36534157202186
aF277.7404140475863
aF0.0
aF0.0
aF0.0
aF0.0
aF0.0
aa(lp1294
F217.55938250734215
aF277.20831861864446
aF0.0
aF0.0
aF0.0
aF0.0
aF0.0
aa(lp1295
F218.6828505753258
aF276.70771108376925
aF0.0
aF0.0
aF0.0
aF0.0
aF0.0
aa(lp1296
F221.64751077287536
aF276.4619055869126
aF0.0
aF0.0
aF0.0
aF0.0
aF0.0
aa(lp1297
F223.9882108600633
aF277.04248237656026
aF0.0
aF0.0
aF0.0
aF0.0
aF0.0
aa(lp1298
F225.63007962210906
aF277.81838407098934
aF0.0
aF0.0
aF0.0
aF0.0
aF0.0
aa(lp1299
F228.8503299248838
aF277.9894935938678
aF0.0
aF0.0
aF0.0
aF0.0
aF0.0
aa(lp1300
F230.11592230212182
aF277.174171518697
aF0.0
aF0.0
aF0.0
aF0.0
aF0.0
aa(lp1301
F232.07063760734707
aF275.8878829267617
aF0.0
aF0.0
aF0.0
aF0.0
aF0.0
aaa(lp1302
(lp1303
F249.62655386322962
aF201.3151967235683
aF0.0
aF0.0
aF0.0
aF0.0
aF0.0
aa(lp1304
F251.85899557176947
aF199.31286654563604
aF0.0
aF0.0
aF0.0
aF0.0
aF0.0
aa(lp1305
F254.09153724187775
aF197.31063632927217
aF0.0
aF0.0
aF0.0
aF0.0
aF0.0
aa(lp1306
F256.3239789504176
aF195.3083061513399
aF0.0
aF0.0
aF0.0
aF0.0
aF0.0
aa(lp1307
F257.39266807888214
aF194.34987463289275
aF0.0
aF0.0
aF0.0
aF0.0
aF0.0
aa(lp1308
F258.30521723740367
aF193.5313893102973
aF0.0
aF0.0
aF0.0
aF0.0
aF0.0
aa(lp1309
F260.47748208172726
aF191.46388418972563
aF0.0
aF0.0
aF0.0
aF0.0
aF0.0
aa(lp1310
F262.64984688761933
aF189.39647903072228
aF0.0
aF0.0
aF0.0
aF0.0
aF0.0
aa(lp1311
F264.82211173194287
aF187.32897391015047
aF0.0
aF0.0
aF0.0
aF0.0
aF0.0
aa(lp1312
F266.8124465216593
aF185.43480214929787
aF0.0
aF0.0
aF0.0
aF0.0
aF0.0
aa(lp1313
F268.9007436484719
aF183.28262958023592
aF0.0
aF0.0
aF0.0
aF0.0
aF0.0
aa(lp1314
F270.98904077528454
aF181.13045701117386
aF0.0
aF0.0
aF0.0
aF0.0
aF0.0
aa(lp1315
F273.0774378636656
aF178.97818448054338
aF0.0
aF0.0
aF0.0
aF0.0
aF0.0
aa(lp1316
F275.1538395638308
aF176.83830718440254
aF0.0
aF0.0
aF0.0
aF0.0
aF0.0
aa(lp1317
F277.2180459526432
aF174.6629435314565
aF0.0
aF0.0
aF0.0
aF0.0
aF0.0
aa(lp1318
F279.2822523414556
aF172.48757987851047
aF0.0
aF0.0
aF0.0
aF0.0
aF0.0
aa(lp1319
F281.346458730268
aF170.31221622556444
aF0.0
aF0.0
aF0.0
aF0.0
aF0.0
aa(lp1320
F283.3945713065575
aF168.15374607768905
aF0.0
aF0.0
aF0.0
aF0.0
aF0.0
aa(lp1321
F285.50046166941996
aF166.01856697526617
aF0.0
aF0.0
aF0.0
aF0.0
aF0.0
aa(lp1322
F287.60625207071405
aF163.8835877959802
aF0.0
aF0.0
aF0.0
aF0.0
aF0.0
aa(lp1323
F289.71214243357656
aF161.7484086935573
aF0.0
aF0.0
aF0.0
aF0.0
aF0.0
aa(lp1324
F291.6209085834251
aF159.81315272806535
aF0.0
aF0.0
aF0.0
aF0.0
aF0.0
aa(lp1325
F293.7781791924789
aF157.72995364124455
aF0.0
aF0.0
aF0.0
aF0.0
aF0.0
aa(lp1326
F295.9354498015327
aF155.64685451599206
aF0.0
aF0.0
aF0.0
aF0.0
aF0.0
aa(lp1327
F298.092620449018
aF153.56375539073971
aF0.0
aF0.0
aF0.0
aF0.0
aF0.0
aa(lp1328
F300.0444700348752
aF151.67898001732289
aF0.0
aF0.0
aF0.0
aF0.0
aF0.0
aa(lp1329
F302.24382446425295
aF149.64036379003767
aF0.0
aF0.0
aF0.0
aF0.0
aF0.0
aa(lp1330
F304.4431788936307
aF147.60174756275242
aF0.0
aF0.0
aF0.0
aF0.0
aF0.0
aa(lp1331
F308.69564397772115
aF143.51561852858845
aF0.0
aF0.0
aF0.0
aF0.0
aF0.0
aa(lp1332
F310.96167277326543
aF141.55147366981006
aF0.0
aF0.0
aF0.0
aF0.0
aF0.0
aa(lp1333
F313.24299568878484
aF139.5741338839941
aF0.0
aF0.0
aF0.0
aF0.0
aF0.0
aa(lp1334
F315.50912444589756
aF137.60998902521573
aF0.0
aF0.0
aF0.0
aF0.0
aF0.0
aa(lp1335
F317.7751532414418
aF135.64584416643723
aF0.0
aF0.0
aF0.0
aF0.0
aF0.0
aa(lp1336
F317.96248122074616
aF135.4835065792492
aF0.0
aF0.0
aF0.0
aF0.0
aF0.0
aa(lp1337
F320.23920590411615
aF133.53165699339206
aF0.0
aF0.0
aF0.0
aF0.0
aF0.0
aa(lp1338
F322.51593058748625
aF131.57990736910335
aF0.0
aF0.0
aF0.0
aF0.0
aF0.0
aa(lp1339
F324.7926552708563
aF129.62815774481462
aF0.0
aF0.0
aF0.0
aF0.0
aF0.0
aa(lp1340
F327.0694799157948
aF127.67630815895747
aF0.0
aF0.0
aF0.0
aF0.0
aF0.0
aa(lp1341
F329.4797532546347
aF125.50384339149687
aF0.0
aF0.0
aF0.0
aF0.0
aF0.0
aa(lp1342
F331.7032983835811
aF123.49151705671805
aF0.0
aF0.0
aF0.0
aF0.0
aF0.0
aa(lp1343
F333.9267435509591
aF121.47929068350767
aF0.0
aF0.0
aF0.0
aF0.0
aF0.0
aa(lp1344
F335.9082817226505
aF119.68598014523677
aF0.0
aF0.0
aF0.0
aF0.0
aF0.0
aa(lp1345
F337.39940843945027
aF118.15416907007162
aF0.0
aF0.0
aF0.0
aF0.0
aF0.0
aa(lp1346
F339.4912042211592
aF116.0052952327689
aF0.0
aF0.0
aF0.0
aF0.0
aF0.0
aa(lp1347
F341.58300000286806
aF113.85642139546628
aF0.0
aF0.0
aF0.0
aF0.0
aF0.0
aa(lp1348
F343.45807910414374
aF111.93026193270467
aF0.0
aF0.0
aF0.0
aF0.0
aF0.0
aa(lp1349
F345.41932507743667
aF109.66163413638033
aF0.0
aF0.0
aF0.0
aF0.0
aF0.0
aa(lp1350
F347.3804710891611
aF107.39290637848755
aF0.0
aF0.0
aF0.0
aF0.0
aF0.0
aa(lp1351
F349.3417170624541
aF105.12427858216321
aF0.0
aF0.0
aF0.0
aF0.0
aF0.0
aa(lp1352
F350.66310903599947
aF103.59556631562043
aF0.0
aF0.0
aF0.0
aF0.0
aF0.0
aa(lp1353
F352.4845087750092
aF101.21328221595083
aF0.0
aF0.0
aF0.0
aF0.0
aF0.0
aa(lp1354
F354.30600847558736
aF98.83089815471268
aF0.0
aF0.0
aF0.0
aF0.0
aF0.0
aa(lp1355
F356.1274082145971
aF96.4486140550431
aF0.0
aF0.0
aF0.0
aF0.0
aF0.0
aa(lp1356
F357.94880795360683
aF94.06632995537352
aF0.0
aF0.0
aF0.0
aF0.0
aF0.0
aa(lp1357
F359.8561746414969
aF90.92073931890141
aF0.0
aF0.0
aF0.0
aF0.0
aF0.0
aa(lp1358
F361.34770120457046
aF88.31903957645005
aF0.0
aF0.0
aF0.0
aF0.0
aF0.0
aa(lp1359
F362.5709309178827
aF86.18535989755411
aF0.0
aF0.0
aF0.0
aF0.0
aF0.0
aa(lp1360
F364.0366673962922
aF83.56906576610679
aF0.0
aF0.0
aF0.0
aF0.0
aF0.0
aa(lp1361
F365.5024038747017
aF80.95287159622802
aF0.0
aF0.0
aF0.0
aF0.0
aF0.0
aa(lp1362
F366.5453029185022
aF79.09128730669516
aF0.0
aF0.0
aF0.0
aF0.0
aF0.0
aa(lp1363
F367.7146533464115
aF76.32974901626747
aF0.0
aF0.0
aF0.0
aF0.0
aF0.0
aa(lp1364
F368.88400377432083
aF73.56831068740821
aF0.0
aF0.0
aF0.0
aF0.0
aF0.0
aa(lp1365
F370.0533542022302
aF70.80687235854906
aF0.0
aF0.0
aF0.0
aF0.0
aF0.0
aa(lp1366
F370.4064184620503
aF69.9729929544099
aF0.0
aF0.0
aF0.0
aF0.0
aF0.0
aa(lp1367
F371.57576888995965
aF67.21155462555066
aF0.0
aF0.0
aF0.0
aF0.0
aF0.0
aa(lp1368
F372.7451193178689
aF64.45001633512295
aF0.0
aF0.0
aF0.0
aF0.0
aF0.0
aa(lp1369
F373.91446974577826
aF61.68857800626381
aF0.0
aF0.0
aF0.0
aF0.0
aF0.0
aa(lp1370
F375.08382017368757
aF58.92713967740454
aF0.0
aF0.0
aF0.0
aF0.0
aF0.0
aa(lp1371
F375.4394834342878
aF58.0872625791575
aF0.0
aF0.0
aF0.0
aF0.0
aF0.0
aa(lp1372
F377.0693568081177
aF52.315281692823
aF0.0
aF0.0
aF0.0
aF0.0
aF0.0
aa(lp1373
F377.8843434758168
aF49.42929124965586
aF0.0
aF0.0
aF0.0
aF0.0
aF0.0
aa(lp1374
F378.6976307968521
aF46.54909857745964
aF0.0
aF0.0
aF0.0
aF0.0
aF0.0
aa(lp1375
F373.27621513112615
aF53.72853834778817
aF0.0
aF0.0
aF0.0
aF0.0
aF0.0
aa(lp1376
F372.2508093618071
aF55.08641629382337
aF0.0
aF0.0
aF0.0
aF0.0
aF0.0
aa(lp1377
F370.63453076128854
aF57.61244512894639
aF0.0
aF0.0
aF0.0
aF0.0
aF0.0
aa(lp1378
F369.01825216077
aF60.13857392563786
aF0.0
aF0.0
aF0.0
aF0.0
aF0.0
aa(lp1379
F368.3429118042171
aF61.1939681654965
aF0.0
aF0.0
aF0.0
aF0.0
aF0.0
aa(lp1380
F366.76881698559106
aF63.746486816262816
aF0.0
aF0.0
aF0.0
aF0.0
aF0.0
aa(lp1381
F365.1946222053965
aF66.29890550546071
aF0.0
aF0.0
aF0.0
aF0.0
aF0.0
aa(lp1382
F363.6205273867704
aF68.85132419465859
aF0.0
aF0.0
aF0.0
aF0.0
aF0.0
aa(lp1383
F362.0463326065758
aF71.4038428454249
aF0.0
aF0.0
aF0.0
aF0.0
aF0.0
aa(lp1384
F361.0385200733067
aF73.03791460513037
aF0.0
aF0.0
aF0.0
aF0.0
aF0.0
aa(lp1385
F357.610837890625
aF77.5787688142438
aF0.0
aF0.0
aF0.0
aF0.0
aF0.0
aa(lp1386
F357.16740837291206
aF78.7128328084848
aF0.0
aF0.0
aF0.0
aF0.0
aF0.0
aa(lp1387
F355.9663701277992
aF80.05281763376463
aF0.0
aF0.0
aF0.0
aF0.0
aF0.0
aa(lp1388
F354.00452438509546
aF82.24167609845352
aF0.0
aF0.0
aF0.0
aF0.0
aF0.0
aa(lp1389
F353.7073386420475
aF82.56385223361785
aF0.0
aF0.0
aF0.0
aF0.0
aF0.0
aa(lp1390
F351.6743202625963
aF84.76830470298731
aF0.0
aF0.0
aF0.0
aF0.0
aF0.0
aa(lp1391
F349.6412019215767
aF86.97285713392532
aF0.0
aF0.0
aF0.0
aF0.0
aF0.0
aa(lp1392
F348.41757236199066
aF88.29964703216771
aF0.0
aF0.0
aF0.0
aF0.0
aF0.0
aa(lp1393
F346.361262937087
aF90.4825078027487
aF0.0
aF0.0
aF0.0
aF0.0
aF0.0
aa(lp1394
F344.30505347375185
aF92.66536857332969
aF0.0
aF0.0
aF0.0
aF0.0
aF0.0
aa(lp1395
F342.2487440488482
aF94.84822934391057
aF0.0
aF0.0
aF0.0
aF0.0
aF0.0
aa(lp1396
F341.1886516152717
aF95.97349672012668
aF0.0
aF0.0
aF0.0
aF0.0
aF0.0
aa(lp1397
F339.080362174766
aF98.10617678333797
aF0.0
aF0.0
aF0.0
aF0.0
aF0.0
aa(lp1398
F336.9720727342603
aF100.23885684654914
aF0.0
aF0.0
aF0.0
aF0.0
aF0.0
aa(lp1399
F334.8637832937546
aF102.37143694819198
aF0.0
aF0.0
aF0.0
aF0.0
aF0.0
aa(lp1400
F333.75760857711543
aF103.49040674559475
aF0.0
aF0.0
aF0.0
aF0.0
aF0.0
aa(lp1401
F331.61763131940626
aF105.59119906846551
aF0.0
aF0.0
aF0.0
aF0.0
aF0.0
aa(lp1402
F329.47765406169697
aF107.69209135290468
aF0.0
aF0.0
aF0.0
aF0.0
aF0.0
aa(lp1403
F326.1736243392071
aF111.18005036137117
aF0.0
aF0.0
aF0.0
aF0.0
aF0.0
aa(lp1404
F323.99856057096645
aF113.24455663488897
aF0.0
aF0.0
aF0.0
aF0.0
aF0.0
aa(lp1405
F321.8234968027258
aF115.30916286997518
aF0.0
aF0.0
aF0.0
aF0.0
aF0.0
aa(lp1406
F319.6485329960536
aF117.37366914349306
aF0.0
aF0.0
aF0.0
aF0.0
aF0.0
aa(lp1407
F318.71689117795523
aF118.25802913970723
aF0.0
aF0.0
aF0.0
aF0.0
aF0.0
aa(lp1408
F317.98037434150143
aF118.9570603879864
aF0.0
aF0.0
aF0.0
aF0.0
aF0.0
aa(lp1409
F315.85509143435667
aF121.07284694612709
aF0.0
aF0.0
aF0.0
aF0.0
aF0.0
aa(lp1410
F313.7297085656433
aF123.18843358113074
aF0.0
aF0.0
aF0.0
aF0.0
aF0.0
aa(lp1411
F309.66507126869953
aF127.36132925672268
aF0.0
aF0.0
aF0.0
aF0.0
aF0.0
aa(lp1412
F308.9103614267851
aF128.11933783039643
aF0.0
aF0.0
aF0.0
aF0.0
aF0.0
aa(lp1413
F308.20443283028175
aF128.74149863252563
aF0.0
aF0.0
aF0.0
aF0.0
aF0.0
aa(lp1414
F305.8697304372017
aF130.7992075193879
aF0.0
aF0.0
aF0.0
aF0.0
aF0.0
aa(lp1415
F303.61999537731737
aF132.78194522990088
aF0.0
aF0.0
aF0.0
aF0.0
aF0.0
aa(lp1416
F300.89824179113896
aF135.3823454719622
aF0.0
aF0.0
aF0.0
aF0.0
aF0.0
aa(lp1417
F298.54634600828285
aF137.24283018424197
aF0.0
aF0.0
aF0.0
aF0.0
aF0.0
aa(lp1418
F296.1943502638583
aF139.10331489652165
aF0.0
aF0.0
aF0.0
aF0.0
aF0.0
aa(lp1419
F293.84235451943374
aF140.9636996472329
aF0.0
aF0.0
aF0.0
aF0.0
aF0.0
aa(lp1420
F292.5501513238803
aF141.98590664636103
aF0.0
aF0.0
aF0.0
aF0.0
aF0.0
aa(lp1421
F291.7514583918411
aF142.617663759063
aF0.0
aF0.0
aF0.0
aF0.0
aF0.0
aa(lp1422
F289.2917040766107
aF144.33320419706772
aF0.0
aF0.0
aF0.0
aF0.0
aF0.0
aa(lp1423
F286.8319497613803
aF146.04864467350401
aF0.0
aF0.0
aF0.0
aF0.0
aF0.0
aa(lp1424
F284.37219544615
aF147.76398518837186
aF0.0
aF0.0
aF0.0
aF0.0
aF0.0
aa(lp1425
F282.3098883271384
aF149.2023321970218
aF0.0
aF0.0
aF0.0
aF0.0
aF0.0
aa(lp1426
F279.9751859340584
aF151.08460853122705
aF0.0
aF0.0
aF0.0
aF0.0
aF0.0
aa(lp1427
F277.6405835025468
aF152.96678490386375
aF0.0
aF0.0
aF0.0
aF0.0
aF0.0
aa(lp1428
F275.30598107103526
aF154.84896127650057
aF0.0
aF0.0
aF0.0
aF0.0
aF0.0
aa(lp1429
F273.2594678798412
aF156.49892692559192
aF0.0
aF0.0
aF0.0
aF0.0
aF0.0
aa(lp1430
F271.27313155286345
aF158.7455631768539
aF0.0
aF0.0
aF0.0
aF0.0
aF0.0
aa(lp1431
F269.28669526431713
aF160.99209946654736
aF0.0
aF0.0
aF0.0
aF0.0
aF0.0
aa(lp1432
F267.30025897577093
aF163.23873571780933
aF0.0
aF0.0
aF0.0
aF0.0
aF0.0
aa(lp1433
F265.31392264879315
aF165.48537196907122
aF0.0
aF0.0
aF0.0
aF0.0
aF0.0
aa(lp1434
F265.1896704191905
aF165.62591793433376
aF0.0
aF0.0
aF0.0
aF0.0
aF0.0
aa(lp1435
F263.31429143320946
aF167.9660182521108
aF0.0
aF0.0
aF0.0
aF0.0
aF0.0
aa(lp1436
F261.43891244722835
aF170.30611856988799
aF0.0
aF0.0
aF0.0
aF0.0
aF0.0
aa(lp1437
F259.56353346124723
aF172.64621888766516
aF0.0
aF0.0
aF0.0
aF0.0
aF0.0
aa(lp1438
F257.6881544752662
aF174.98631920544233
aF0.0
aF0.0
aF0.0
aF0.0
aF0.0
aa(lp1439
F257.4529449046669
aF175.2798063704571
aF0.0
aF0.0
aF0.0
aF0.0
aF0.0
aa(lp1440
F255.69512072320117
aF177.1863733657994
aF0.0
aF0.0
aF0.0
aF0.0
aF0.0
aa(lp1441
F251.44035652303603
aF181.41364813463653
aF0.0
aF0.0
aF0.0
aF0.0
aF0.0
aa(lp1442
F249.3129744229534
aF183.52723553827096
aF0.0
aF0.0
aF0.0
aF0.0
aF0.0
aa(lp1443
F246.63490404219442
aF186.08385261334433
aF0.0
aF0.0
aF0.0
aF0.0
aF0.0
aa(lp1444
F244.45614169592056
aF188.1443604241235
aF0.0
aF0.0
aF0.0
aF0.0
aF0.0
aa(lp1445
F242.27727938807823
aF190.2049681964712
aF0.0
aF0.0
aF0.0
aF0.0
aF0.0
aa(lp1446
F240.16229252248536
aF192.88133923056628
aF0.0
aF0.0
aF0.0
aF0.0
aF0.0
aa(lp1447
F237.98992771659323
aF194.9486444280011
aF0.0
aF0.0
aF0.0
aF0.0
aF0.0
aa(lp1448
F235.81746294913268
aF197.0159496254359
aF0.0
aF0.0
aF0.0
aF0.0
aF0.0
aa(lp1449
F233.34471363000188
aF199.36884502397672
aF0.0
aF0.0
aF0.0
aF0.0
aF0.0
aa(lp1450
F231.73713168593986
aF200.89865686777262
aF0.0
aF0.0
aF0.0
aF0.0
aF0.0
aa(lp1451
F229.81207180043134
aF203.19797286561587
aF0.0
aF0.0
aF0.0
aF0.0
aF0.0
aa(lp1452
F227.88701191492294
aF205.4973888250276
aF0.0
aF0.0
aF0.0
aF0.0
aF0.0
aa(lp1453
F227.2434593371421
aF206.26599332495866
aF0.0
aF0.0
aF0.0
aF0.0
aF0.0
aa(lp1454
F225.31829949006516
aF208.5654092843704
aF0.0
aF0.0
aF0.0
aF0.0
aF0.0
aa(lp1455
F223.93613088289283
aF211.37013097237522
aF0.0
aF0.0
aF0.0
aF0.0
aF0.0
aa(lp1456
F222.14661888422359
aF213.776505810045
aF0.0
aF0.0
aF0.0
aF0.0
aF0.0
aa(lp1457
F220.35700692398586
aF216.1828806477147
aF0.0
aF0.0
aF0.0
aF0.0
aF0.0
aa(lp1458
F219.28142044729714
aF217.62922458184195
aF0.0
aF0.0
aF0.0
aF0.0
aF0.0
aa(lp1459
F217.4919084486279
aF220.03559941951173
aF0.0
aF0.0
aF0.0
aF0.0
aF0.0
aa(lp1460
F216.473400027533
aF221.40507290748897
aF0.0
aF0.0
aF0.0
aF0.0
aF0.0
aa(lp1461
F214.98827100484118
aF224.01037126640514
aF0.0
aF0.0
aF0.0
aF0.0
aF0.0
aa(lp1462
F214.4344839155424
aF224.98179778875277
aF0.0
aF0.0
aF0.0
aF0.0
aF0.0
aa(lp1463
F212.94935489285058
aF227.58719610923737
aF0.0
aF0.0
aF0.0
aF0.0
aF0.0
aa(lp1464
F211.46422587015877
aF230.19239450658498
aF0.0
aF0.0
aF0.0
aF0.0
aF0.0
aa(lp1465
F210.775590625
aF231.40043006149043
aF0.0
aF0.0
aF0.0
aF0.0
aF0.0
aa(lp1466
F210.07246095241373
aF233.2356244969484
aF0.0
aF0.0
aF0.0
aF0.0
aF0.0
aa(lp1467
F209.94011183576538
aF233.58109167756513
aF0.0
aF0.0
aF0.0
aF0.0
aF0.0
aa(lp1468
F209.42500987346278
aF234.9256747349945
aF0.0
aF0.0
aF0.0
aF0.0
aF0.0
aa(lp1469
F208.35212235912263
aF237.72599811398683
aF0.0
aF0.0
aF0.0
aF0.0
aF0.0
aa(lp1470
F207.44577081784598
aF240.0915886317227
aF0.0
aF0.0
aF0.0
aF0.0
aF0.0
aaa(lp1471
(lp1472
F285.57033480577735
aF391.60373780114264
aF0.0
aF0.0
aF0.0
aF0.0
aF0.0
aa(lp1473
F286.62692858445763
aF399.93533460960447
aF0.0
aF0.0
aF0.0
aF0.0
aF0.0
aa(lp1474
F286.65401816951174
aF401.14456970333146
aF0.0
aF0.0
aF0.0
aF0.0
aF0.0
aa(lp1475
F286.79316467281575
aF404.14021798710536
aF0.0
aF0.0
aF0.0
aF0.0
aF0.0
aa(lp1476
F286.93231117611964
aF407.13586627087926
aF0.0
aF0.0
aF0.0
aF0.0
aF0.0
aa(lp1477
F287.08755149194656
aF410.47738158154374
aF0.0
aF0.0
aF0.0
aF0.0
aF0.0
aa(lp1478
F286.9188163643768
aF413.4715304417906
aF0.0
aF0.0
aF0.0
aF0.0
aF0.0
aa(lp1479
F286.895225434219
aF413.88906991327093
aF0.0
aF0.0
aF0.0
aF0.0
aF0.0
aa(lp1480
F287.18021586591414
aF416.8743221939244
aF0.0
aF0.0
aF0.0
aF0.0
aF0.0
aa(lp1481
F287.46520629760926
aF419.8595744745778
aF0.0
aF0.0
aF0.0
aF0.0
aF0.0
aa(lp1482
F287.69811675213384
aF422.29833686043037
aF0.0
aF0.0
aF0.0
aF0.0
aF0.0
aa(lp1483
F288.329274095425
aF425.2300097403863
aF0.0
aF0.0
aF0.0
aF0.0
aF0.0
aa(lp1484
F288.96053140028454
aF428.16168262034233
aF0.0
aF0.0
aF0.0
aF0.0
aF0.0
aa(lp1485
F289.93525665439154
aF431.25289416356924
aF0.0
aF0.0
aF0.0
aF0.0
aF0.0
aa(lp1486
F290.5502202235912
aF434.187965736853
aF0.0
aF0.0
aF0.0
aF0.0
aF0.0
aa(lp1487
F291.16518379279097
aF437.1231372717053
aF0.0
aF0.0
aF0.0
aF0.0
aF0.0
aa(lp1488
F291.5706279144869
aF439.0585931603341
aF0.0
aF0.0
aF0.0
aF0.0
aF0.0
aa(lp1489
F292.0971254955947
aF441.57172695312494
aF0.0
aF0.0
aF0.0
aF0.0
aF0.0
aa(lp1490
F293.40662204249264
aF444.2694897628717
aF0.0
aF0.0
aF0.0
aF0.0
aF0.0
aa(lp1491
F294.9520278909692
aF447.4532657184976
aF0.0
aF0.0
aF0.0
aF0.0
aF0.0
aa(lp1492
F296.13567282316905
aF450.2086063916804
aF0.0
aF0.0
aF0.0
aF0.0
aF0.0
aa(lp1493
F296.80941379462644
aF451.77670351619867
aF0.0
aF0.0
aF0.0
aF0.0
aF0.0
aa(lp1494
F299.26067137653723
aF455.2552661372293
aF0.0
aF0.0
aF0.0
aF0.0
aF0.0
aa(lp1495
F300.9882072027579
aF457.7066236807085
aF0.0
aF0.0
aF0.0
aF0.0
aF0.0
aa(lp1496
F302.71564306741004
aF460.1579812241878
aF0.0
aF0.0
aF0.0
aF0.0
aF0.0
aa(lp1497
F303.5764121334664
aF461.3795115908361
aF0.0
aF0.0
aF0.0
aF0.0
aF0.0
aa(lp1498
F305.5881386988344
aF463.60355652762485
aF0.0
aF0.0
aF0.0
aF0.0
aF0.0
aa(lp1499
F307.8680621523954
aF466.1242873996191
aF0.0
aF0.0
aF0.0
aF0.0
aF0.0
aa(lp1500
F309.72934655722287
aF468.4756833746329
aF0.0
aF0.0
aF0.0
aF0.0
aF0.0
aa(lp1501
F310.0552212704203
aF468.8875250367107
aF0.0
aF0.0
aF0.0
aF0.0
aF0.0
aa(lp1502
F313.17032362851046
aF472.4226659054928
aF0.0
aF0.0
aF0.0
aF0.0
aF0.0
aa(lp1503
F314.0524844702184
aF473.79213939347005
aF0.0
aF0.0
aF0.0
aF0.0
aF0.0
aa(lp1504
F316.1389822887987
aF477.4856193867015
aF0.0
aF0.0
aF0.0
aF0.0
aF0.0
aa(lp1505
F316.4228731432406
aF478.0843891818098
aF0.0
aF0.0
aF0.0
aF0.0
aF0.0
aa(lp1506
F317.2914392116373
aF480.95468565872795
aF0.0
aF0.0
aF0.0
aF0.0
aF0.0
aa(lp1507
F317.6652954776982
aF482.19021064496144
aF0.0
aF0.0
aF0.0
aF0.0
aF0.0
aa(lp1508
F318.13031669419973
aF485.15277164957325
aF0.0
aF0.0
aF0.0
aF0.0
aF0.0
aa(lp1509
F318.5747458275973
aF487.98388319165286
aF0.0
aF0.0
aF0.0
aF0.0
aF0.0
aa(lp1510
F319.0097785735591
aF490.9509424668457
aF0.0
aF0.0
aF0.0
aF0.0
aF0.0
aa(lp1511
F319.441812472467
aF493.89860919775606
aF0.0
aF0.0
aF0.0
aF0.0
aF0.0
aa(lp1512
F319.85305436513397
aF496.8691671278451
aF0.0
aF0.0
aF0.0
aF0.0
aF0.0
aa(lp1513
F320.264296257801
aF499.8396250963657
aF0.0
aF0.0
aF0.0
aF0.0
aF0.0
aa(lp1514
F320.4351305783086
aF501.07375062064057
aF0.0
aF0.0
aF0.0
aF0.0
aF0.0
aa(lp1515
F320.6570452603019
aF504.06440082599124
aF0.0
aF0.0
aF0.0
aF0.0
aF0.0
aa(lp1516
F320.8790599038638
aF507.0550510313418
aF0.0
aF0.0
aF0.0
aF0.0
aF0.0
aa(lp1517
F321.10107454742564
aF510.0456012751239
aF0.0
aF0.0
aF0.0
aF0.0
aF0.0
aa(lp1518
F321.17554591593245
aF511.0502150382021
aF0.0
aF0.0
aF0.0
aF0.0
aF0.0
aa(lp1519
F321.336284118025
aF514.0447637447228
aF0.0
aF0.0
aF0.0
aF0.0
aF0.0
aa(lp1520
F321.4970223201175
aF517.0393124512436
aF0.0
aF0.0
aF0.0
aF0.0
aF0.0
aa(lp1521
F321.65776052221
aF520.0338611577644
aF0.0
aF0.0
aF0.0
aF0.0
aF0.0
aa(lp1522
F321.79120921611144
aF522.5196054807957
aF0.0
aF0.0
aF0.0
aF0.0
aF0.0
aa(lp1523
F322.00512697262764
aF525.5107554939887
aF0.0
aF0.0
aF0.0
aF0.0
aF0.0
aa(lp1524
F322.2190447291438
aF528.50200546875
aF0.0
aF0.0
aF0.0
aF0.0
aF0.0
aa(lp1525
F322.4357614095769
aF531.5319405705076
aF0.0
aF0.0
aF0.0
aF0.0
aF0.0
aa(lp1526
F322.717952917355
aF534.5174927358663
aF0.0
aF0.0
aF0.0
aF0.0
aF0.0
aa(lp1527
F323.00014442513304
aF537.5030449012252
aF0.0
aF0.0
aF0.0
aF0.0
aF0.0
aa(lp1528
F323.17397759269454
aF539.3424377225588
aF0.0
aF0.0
aF0.0
aF0.0
aF0.0
aa(lp1529
F323.37819907706955
aF542.3342874667309
aF0.0
aF0.0
aF0.0
aF0.0
aF0.0
aa(lp1530
F323.4296792848293
aF543.0885974623715
aF0.0
aF0.0
aF0.0
aF0.0
aF0.0
aa(lp1531
F323.63390076920433
aF546.0804472065437
aF0.0
aF0.0
aF0.0
aF0.0
aF0.0
aa(lp1532
F323.704273713404
aF547.1111509389914
aF0.0
aF0.0
aF0.0
aF0.0
aF0.0
aa(lp1533
F323.20586533303504
aF550.7656459205213
aF0.0
aF0.0
aF0.0
aF0.0
aF0.0
aa(lp1534
F322.98734934436953
aF553.7564960490088
aF0.0
aF0.0
aF0.0
aF0.0
aF0.0
aa(lp1535
F322.84900253361326
aF555.649068424766
aF0.0
aF0.0
aF0.0
aF0.0
aF0.0
aa(lp1536
F322.7165534553964
aF557.0160428735315
aF0.0
aF0.0
aF0.0
aF0.0
aF0.0
aa(lp1537
F322.7373454616373
aF560.0147899659279
aF0.0
aF0.0
aF0.0
aF0.0
aF0.0
aa(lp1538
F322.74804134946316
aF561.5563972748026
aF0.0
aF0.0
aF0.0
aF0.0
aF0.0
aa(lp1539
F322.72305095734674
aF564.555144367199
aF0.0
aF0.0
aF0.0
aF0.0
aF0.0
aa(lp1540
F322.6980605652304
aF567.5537914980267
aF0.0
aF0.0
aF0.0
aF0.0
aF0.0
aa(lp1541
F322.67307017311396
aF570.5525385904231
aF0.0
aF0.0
aF0.0
aF0.0
aF0.0
aa(lp1542
F322.6624742468566
aF571.8223503946402
aF0.0
aF0.0
aF0.0
aF0.0
aF0.0
aa(lp1543
F322.57120933484765
aF574.8197979866464
aF0.0
aF0.0
aF0.0
aF0.0
aF0.0
aa(lp1544
F322.48004438440717
aF577.8172455786528
aF0.0
aF0.0
aF0.0
aF0.0
aF0.0
aa(lp1545
F322.3887794723981
aF580.814693170659
aF0.0
aF0.0
aF0.0
aF0.0
aF0.0
aa(lp1546
F322.2976145219576
aF583.8121407626652
aF0.0
aF0.0
aF0.0
aF0.0
aF0.0
aa(lp1547
F322.2063496099486
aF586.8095883546715
aF0.0
aF0.0
aF0.0
aF0.0
aF0.0
aa(lp1548
F322.1432738602469
aF588.883890861899
aF0.0
aF0.0
aF0.0
aF0.0
aF0.0
aa(lp1549
F322.03631498198877
aF591.8808386460628
aF0.0
aF0.0
aF0.0
aF0.0
aF0.0
aa(lp1550
F321.9294560652992
aF594.8777864302267
aF0.0
aF0.0
aF0.0
aF0.0
aF0.0
aa(lp1551
F321.8225971486096
aF597.8746342528221
aF0.0
aF0.0
aF0.0
aF0.0
aF0.0
aa(lp1552
F321.7156382703515
aF600.8716819985545
aF0.0
aF0.0
aF0.0
aF0.0
aF0.0
aa(lp1553
F321.6906478782351
aF601.5719127856553
aF0.0
aF0.0
aF0.0
aF0.0
aF0.0
aa(lp1554
F321.3978604441997
aF607.5625096222238
aF0.0
aF0.0
aF0.0
aF0.0
aF0.0
aa(lp1555
F321.34088235017435
aF608.7275617026891
aF0.0
aF0.0
aF0.0
aF0.0
aF0.0
aa(lp1556
F321.14455782970816
aF611.720011216272
aF0.0
aF0.0
aF0.0
aF0.0
aF0.0
aa(lp1557
F320.94813334767343
aF614.712460729855
aF0.0
aF0.0
aF0.0
aF0.0
aF0.0
aa(lp1558
F320.75180882720724
aF617.7048102818694
aF0.0
aF0.0
aF0.0
aF0.0
aF0.0
aa(lp1559
F320.555484306741
aF620.6972597954525
aF0.0
aF0.0
aF0.0
aF0.0
aF0.0
aa(lp1560
F320.3591597862748
aF623.6897093090354
aF0.0
aF0.0
aF0.0
aF0.0
aF0.0
aa(lp1561
F319.94511896969067
aF627.4224741986739
aF0.0
aF0.0
aF0.0
aF0.0
aF0.0
aa(lp1562
F319.580759052634
aF630.3991297844392
aF0.0
aF0.0
aF0.0
aF0.0
aF0.0
aa(lp1563
F319.21639913557726
aF633.3756854086362
aF0.0
aF0.0
aF0.0
aF0.0
aF0.0
aa(lp1564
F318.8455417165703
aF636.4057204719622
aF0.0
aF0.0
aF0.0
aF0.0
aF0.0
aa(lp1565
F318.2708626594622
aF639.3489888938601
aF0.0
aF0.0
aF0.0
aF0.0
aF0.0
aa(lp1566
F317.6962835639225
aF642.2922573157581
aF0.0
aF0.0
aF0.0
aF0.0
aF0.0
aa(lp1567
F317.1209047758352
aF645.2392243156893
aF0.0
aF0.0
aF0.0
aF0.0
aF0.0
aa(lp1568
F316.350800852377
aF648.1375100317778
aF0.0
aF0.0
aF0.0
aF0.0
aF0.0
aa(lp1569
F316.0130307125321
aF649.4089212210903
aF0.0
aF0.0
aF0.0
aF0.0
aF0.0
aa(lp1570
F315.39646775823695
aF651.7292291483112
aF0.0
aF0.0
aF0.0
aF0.0
aF0.0
aa(lp1571
F313.7258100644732
aF655.7875688664419
aF0.0
aF0.0
aF0.0
aF0.0
aF0.0
aa(lp1572
F312.5969440717924
aF658.5658007388032
aF0.0
aF0.0
aF0.0
aF0.0
aF0.0
aa(lp1573
F311.7633645523587
aF660.6170121237152
aF0.0
aF0.0
aF0.0
aF0.0
aF0.0
aa(lp1574
F310.3853943310619
aF663.2805880770466
aF0.0
aF0.0
aF0.0
aF0.0
aF0.0
aa(lp1575
F309.11888125860406
aF665.7288468119034
aF0.0
aF0.0
aF0.0
aF0.0
aF0.0
aa(lp1576
F307.60446349635185
aF668.3171517041804
aF0.0
aF0.0
aF0.0
aF0.0
aF0.0
aa(lp1577
F306.3886309391061
aF670.3952527510096
aF0.0
aF0.0
aF0.0
aF0.0
aF0.0
aa(lp1578
F304.82983024045524
aF672.9571677892118
aF0.0
aF0.0
aF0.0
aF0.0
aF0.0
aa(lp1579
F304.19687358893174
aF673.9972679090951
aF0.0
aF0.0
aF0.0
aF0.0
aF0.0
aa(lp1580
F302.6667618604304
aF676.5764762986416
aF0.0
aF0.0
aF0.0
aF0.0
aF0.0
aa(lp1581
F302.28900709319936
aF677.2132314897669
aF0.0
aF0.0
aF0.0
aF0.0
aF0.0
aa(lp1582
F300.832966886931
aF679.8349235459112
aF0.0
aF0.0
aF0.0
aF0.0
aF0.0
aa(lp1583
F300.2627861004038
aF680.8615288540519
aF0.0
aF0.0
aF0.0
aF0.0
aF0.0
aa(lp1584
F298.5235547706727
aF684.0726942794374
aF0.0
aF0.0
aF0.0
aF0.0
aF0.0
aa(lp1585
F297.9975569974073
aF685.0438209170796
aF0.0
aF0.0
aF0.0
aF0.0
aF0.0
aa(lp1586
F295.86767585811305
aF688.5383773890649
aF0.0
aF0.0
aF0.0
aF0.0
aF0.0
aa(lp1587
F294.73990944268536
aF690.5174165215445
aF0.0
aF0.0
aF0.0
aF0.0
aF0.0
aa(lp1588
F293.3097592826496
aF693.0010616516381
aF0.0
aF0.0
aF0.0
aF0.0
aF0.0
aa(lp1589
F292.5165642368759
aF694.2161944779049
aF0.0
aF0.0
aF0.0
aF0.0
aF0.0
aa(lp1590
F291.7724503212188
aF695.2954795326266
aF0.0
aF0.0
aF0.0
aF0.0
aF0.0
aa(lp1591
F290.2154489308003
aF697.7650300815666
aF0.0
aF0.0
aF0.0
aF0.0
aF0.0
aa(lp1592
F293.46350017494956
aF698.5608241281204
aF0.0
aF0.0
aF0.0
aF0.0
aF0.0
aa(lp1593
F296.6969570301028
aF697.2630230847329
aF0.0
aF0.0
aF0.0
aF0.0
aF0.0
aaa(lp1594
(lp1595
F300.2615865615822
aF690.5473050305158
aF0.0
aF0.0
aF0.0
aF0.0
aF0.0
aa(lp1596
F299.27676518906026
aF692.0558250602286
aF0.0
aF0.0
aF0.0
aF0.0
aF0.0
aa(lp1597
F298.78145561731367
aF693.0390470476551
aF0.0
aF0.0
aF0.0
aF0.0
aF0.0
aa(lp1598
F297.8797023081865
aF694.5072825652763
aF0.0
aF0.0
aF0.0
aF0.0
aF0.0
aa(lp1599
F296.6969570301028
aF697.2630230847329
aF0.0
aF0.0
aF0.0
aF0.0
aF0.0
aa(lp1600
F296.593696729878
aF697.5035306184609
aF0.0
aF0.0
aF0.0
aF0.0
aF0.0
aa(lp1601
F296.3941734392208
aF699.9168028043548
aF0.0
aF0.0
aF0.0
aF0.0
aF0.0
aa(lp1602
F296.9023780532994
aF701.0942501193098
aF0.0
aF0.0
aF0.0
aF0.0
aF0.0
aa(lp1603
F297.7647465044512
aF701.6352421278451
aF0.0
aF0.0
aF0.0
aF0.0
aF0.0
aa(lp1604
F300.09734970459346
aF701.8471606529919
aF0.0
aF0.0
aF0.0
aF0.0
aF0.0
aa(lp1605
F303.09519714287353
aF701.770090283705
aF0.0
aF0.0
aF0.0
aF0.0
aF0.0
aa(lp1606
F306.2752745204662
aF701.325361265602
aF0.0
aF0.0
aF0.0
aF0.0
aF0.0
aa(lp1607
F308.8804729178139
aF700.9396095728938
aF0.0
aF0.0
aF0.0
aF0.0
aF0.0
aa(lp1608
F311.8069477962096
aF700.2846613763078
aF0.0
aF0.0
aF0.0
aF0.0
aF0.0
aa(lp1609
F314.7334226746054
aF699.6297131797219
aF0.0
aF0.0
aF0.0
aF0.0
aF0.0
aa(lp1610
F315.61928209434654
aF699.4314893894548
aF0.0
aF0.0
aF0.0
aF0.0
aF0.0
aa(lp1611
F318.43879809448424
aF698.4097821981691
aF0.0
aF0.0
aF0.0
aF0.0
aF0.0
aa(lp1612
F320.3823508701588
aF697.7055529483297
aF0.0
aF0.0
aF0.0
aF0.0
aF0.0
aa(lp1613
F321.82459637997886
aF697.0146185870962
aF0.0
aF0.0
aF0.0
aF0.0
aF0.0
aa(lp1614
F323.6591910460261
aF695.3296663890418
aF0.0
aF0.0
aF0.0
aF0.0
aF0.0
aa(lp1615
F324.39680745973294
aF694.3589395976735
aF0.0
aF0.0
aF0.0
aF0.0
aF0.0
aa(lp1616
F324.7882569618438
aF693.7931571201588
aF0.0
aF0.0
aF0.0
aF0.0
aF0.0
aa(lp1617
F325.268672259889
aF691.8790930071815
aF0.0
aF0.0
aF0.0
aF0.0
aF0.0
aa(lp1618
F325.84764966444106
aF688.9366242778314
aF0.0
aF0.0
aF0.0
aF0.0
aF0.0
aa(lp1619
F326.1875189972237
aF687.2088885284737
aF0.0
aF0.0
aF0.0
aF0.0
aF0.0
aa(lp1620
F326.74400504887114
aF684.2621214516796
aF0.0
aF0.0
aF0.0
aF0.0
aF0.0
aa(lp1621
F327.18713468187866
aF681.9157235550891
aF0.0
aF0.0
aF0.0
aF0.0
aF0.0
aa(lp1622
F327.40924928700895
aF680.7375765091548
aF0.0
aF0.0
aF0.0
aF0.0
aF0.0
aa(lp1623
F328.1639591289234
aF677.8351923687591
aF0.0
aF0.0
aF0.0
aF0.0
aF0.0
aa(lp1624
F328.3070041333976
aF677.2850038959251
aF0.0
aF0.0
aF0.0
aF0.0
aF0.0
aa(lp1625
F328.87488580385
aF674.9195133397577
aF0.0
aF0.0
aF0.0
aF0.0
aF0.0
aa(lp1626
F329.37399391519824
aF672.6284941520971
aF0.0
aF0.0
aF0.0
aF0.0
aF0.0
aa(lp1627
F329.93577792997434
aF669.8713541706819
aF0.0
aF0.0
aF0.0
aF0.0
aF0.0
aa(lp1628
F330.53754657213653
aF666.9334836734811
aF0.0
aF0.0
aF0.0
aF0.0
aF0.0
aa(lp1629
F330.64480533510005
aF666.4102848241328
aF0.0
aF0.0
aF0.0
aF0.0
aF0.0
aa(lp1630
F331.35273316297264
aF663.4962051802268
aF0.0
aF0.0
aF0.0
aF0.0
aF0.0
aa(lp1631
F331.53206421679977
aF662.7580889586775
aF0.0
aF0.0
aF0.0
aF0.0
aF0.0
aa(lp1632
F332.47050342155376
aF659.9097840268219
aF0.0
aF0.0
aF0.0
aF0.0
aF0.0
aa(lp1633
F332.58675872567915
aF659.5569196901387
aF0.0
aF0.0
aF0.0
aF0.0
aF0.0
aa(lp1634
F333.47931557050754
aF656.6940203692869
aF0.0
aF0.0
aF0.0
aF0.0
aF0.0
aa(lp1635
F333.9341407070255
aF655.2351812391015
aF0.0
aF0.0
aF0.0
aF0.0
aF0.0
aa(lp1636
F334.6919493575624
aF652.3335967912536
aF0.0
aF0.0
aF0.0
aF0.0
aF0.0
aa(lp1637
F335.44965804653077
aF649.4321123049743
aF0.0
aF0.0
aF0.0
aF0.0
aF0.0
aa(lp1638
F335.62309136781846
aF648.7681675672266
aF0.0
aF0.0
aF0.0
aF0.0
aF0.0
aa(lp1639
F336.1257980956314
aF646.1027923056625
aF0.0
aF0.0
aF0.0
aF0.0
aF0.0
aa(lp1640
F336.67268783670613
aF643.2032070891842
aF0.0
aF0.0
aF0.0
aF0.0
aF0.0
aa(lp1641
F336.85011962073236
aF642.2620689220815
aF0.0
aF0.0
aF0.0
aF0.0
aF0.0
aa(lp1642
F337.3993084778818
aF639.3140023448972
aF0.0
aF0.0
aF0.0
aF0.0
aF0.0
aa(lp1643
F337.89801674295614
aF636.2971622086086
aF0.0
aF0.0
aF0.0
aF0.0
aF0.0
aa(lp1644
F338.3860291202046
aF633.33829978203
aF0.0
aF0.0
aF0.0
aF0.0
aF0.0
aa(lp1645
F338.8740414974532
aF630.3794373554515
aF0.0
aF0.0
aF0.0
aF0.0
aF0.0
aa(lp1646
F339.26818996191264
aF625.9105554756333
aF0.0
aF0.0
aF0.0
aF0.0
aF0.0
aa(lp1647
F339.5129958430846
aF622.9217045785151
aF0.0
aF0.0
aF0.0
aF0.0
aF0.0
aa(lp1648
F339.7578017242566
aF619.9329536429653
aF0.0
aF0.0
aF0.0
aF0.0
aF0.0
aa(lp1649
F339.8818540307223
aF618.417636226597
aF0.0
aF0.0
aF0.0
aF0.0
aF0.0
aa(lp1650
F340.1266599118943
aF615.4287853294787
aF0.0
aF0.0
aF0.0
aF0.0
aF0.0
aa(lp1651
F340.37146579306625
aF612.4399344323605
aF0.0
aF0.0
aF0.0
aF0.0
aF0.0
aa(lp1652
F340.5497972312087
aF610.2632712790244
aF0.0
aF0.0
aF0.0
aF0.0
aF0.0
aa(lp1653
F340.6470598373256
aF607.2660236101551
aF0.0
aF0.0
aF0.0
aF0.0
aF0.0
aa(lp1654
F340.74452236657953
aF604.2687759412858
aF0.0
aF0.0
aF0.0
aF0.0
aF0.0
aa(lp1655
F340.8418849342649
aF601.2715282724165
aF0.0
aF0.0
aF0.0
aF0.0
aF0.0
aa(lp1656
F340.93924750195026
aF598.2742806035473
aF0.0
aF0.0
aF0.0
aF0.0
aF0.0
aa(lp1657
F341.0366100696356
aF595.2769329731094
aF0.0
aF0.0
aF0.0
aF0.0
aF0.0
aa(lp1658
F341.02811333631604
aF591.5140796513629
aF0.0
aF0.0
aF0.0
aF0.0
aF0.0
aa(lp1659
F340.984929938739
aF587.6303727933415
aF0.0
aF0.0
aF0.0
aF0.0
aF0.0
aa(lp1660
F340.9716350501331
aF584.6316257009453
aF0.0
aF0.0
aF0.0
aF0.0
aF0.0
aa(lp1661
F340.9583401615272
aF581.6327786469806
aF0.0
aF0.0
aF0.0
aF0.0
aF0.0
aa(lp1662
F340.95494146819937
aF580.8718711878213
aF0.0
aF0.0
aF0.0
aF0.0
aF0.0
aa(lp1663
F340.8890667945806
aF577.8737238648357
aF0.0
aF0.0
aF0.0
aF0.0
aF0.0
aa(lp1664
F340.82319212096183
aF574.8756765034187
aF0.0
aF0.0
aF0.0
aF0.0
aF0.0
aa(lp1665
F340.77181187477055
aF572.538475071127
aF0.0
aF0.0
aF0.0
aF0.0
aF0.0
aa(lp1666
F340.74842086774964
aF569.5396280171623
aF0.0
aF0.0
aF0.0
aF0.0
aF0.0
aa(lp1667
F340.72772882307726
aF566.8957444928185
aF0.0
aF0.0
aF0.0
aF0.0
aF0.0
aa(lp1668
F340.92075461178416
aF563.9030950560986
aF0.0
aF0.0
aF0.0
aF0.0
aF0.0
aa(lp1669
F341.113780400491
aF560.9104456193786
aF0.0
aF0.0
aF0.0
aF0.0
aF0.0
aa(lp1670
F341.16785960903087
aF560.0720679446586
aF0.0
aF0.0
aF0.0
aF0.0
aF0.0
aa(lp1671
F341.2840149515877
aF557.0754200452001
aF0.0
aF0.0
aF0.0
aF0.0
aF0.0
aa(lp1672
F341.30310761116465
aF554.9259464384867
aF0.0
aF0.0
aF0.0
aF0.0
aF0.0
aa(lp1673
F341.4603471583609
aF551.9311978088289
aF0.0
aF0.0
aF0.0
aF0.0
aF0.0
aa(lp1674
F341.6098896647852
aF549.080893645604
aF0.0
aF0.0
aF0.0
aF0.0
aF0.0
aa(lp1675
F341.9049762148954
aF546.0965410190666
aF0.0
aF0.0
aF0.0
aF0.0
aF0.0
aa(lp1676
F342.2000627650055
aF543.1122883540978
aF0.0
aF0.0
aF0.0
aF0.0
aF0.0
aa(lp1677
F342.3793938188326
aF541.29858565586
aF0.0
aF0.0
aF0.0
aF0.0
aF0.0
aa(lp1678
F342.6829771022623
aF538.315132683439
aF0.0
aF0.0
aF0.0
aF0.0
aF0.0
aa(lp1679
F342.986560385692
aF535.3316797110178
aF0.0
aF0.0
aF0.0
aF0.0
aF0.0
aa(lp1680
F343.2901436691217
aF532.3483267001652
aF0.0
aF0.0
aF0.0
aF0.0
aF0.0
aa(lp1681
F343.5045612334802
aF530.2406370290703
aF0.0
aF0.0
aF0.0
aF0.0
aF0.0
aa(lp1682
F343.73937095780565
aF527.2509864394044
aF0.0
aF0.0
aF0.0
aF0.0
aF0.0
aa(lp1683
F343.9741806821311
aF524.2613358497384
aF0.0
aF0.0
aF0.0
aF0.0
aF0.0
aa(lp1684
F344.20899040645645
aF521.2716852600724
aF0.0
aF0.0
aF0.0
aF0.0
aF0.0
aa(lp1685
F344.44370016921346
aF518.2820346704066
aF0.0
aF0.0
aF0.0
aF0.0
aF0.0
aa(lp1686
F344.53086665691535
aF517.1719614525973
aF0.0
aF0.0
aF0.0
aF0.0
aF0.0
aa(lp1687
F344.7320892942364
aF514.6097465296898
aF0.0
aF0.0
aF0.0
aF0.0
aF0.0
aa(lp1688
F345.2690828400331
aF510.0777889001698
aF0.0
aF0.0
aF0.0
aF0.0
aF0.0
aa(lp1689
F345.57466535483206
aF507.0945358508857
aF0.0
aF0.0
aF0.0
aF0.0
aF0.0
aa(lp1690
F345.8802478696311
aF504.1112828016015
aF0.0
aF0.0
aF0.0
aF0.0
aF0.0
aa(lp1691
F346.1858303844301
aF501.12802975231733
aF0.0
aF0.0
aF0.0
aF0.0
aF0.0
aa(lp1692
F346.4913129376606
aF498.1447767030333
aF0.0
aF0.0
aF0.0
aF0.0
aF0.0
aa(lp1693
F346.58737600495596
aF497.2074370755323
aF0.0
aF0.0
aF0.0
aF0.0
aF0.0
aa(lp1694
F346.9467378435894
aF494.23028168192457
aF0.0
aF0.0
aF0.0
aF0.0
aF0.0
aa(lp1695
F347.30609968222285
aF491.2530263267483
aF0.0
aF0.0
aF0.0
aF0.0
aF0.0
aa(lp1696
F347.6655614824248
aF488.2757709715722
aF0.0
aF0.0
aF0.0
aF0.0
aF0.0
aa(lp1697
F349.38230145925115
aF483.99121822400423
aF0.0
aF0.0
aF0.0
aF0.0
aF0.0
aaa(lp1698
(lp1699
F497.42228554802216
aF443.4128191211224
aF0.0
aF0.0
aF0.0
aF0.0
aF0.0
aa(lp1700
F503.9653699734995
aF446.5092286659096
aF0.0
aF0.0
aF0.0
aF0.0
aF0.0
aa(lp1701
F505.9924906204112
aF448.7191790215447
aF0.0
aF0.0
aF0.0
aF0.0
aF0.0
aa(lp1702
F508.01961126732294
aF450.92912937717966
aF0.0
aF0.0
aF0.0
aF0.0
aF0.0
aa(lp1703
F510.0932140435709
aF453.2691297333884
aF0.0
aF0.0
aF0.0
aF0.0
aF0.0
aa(lp1704
F512.080450024665
aF455.5149662921026
aF0.0
aF0.0
aF0.0
aF0.0
aF0.0
aa(lp1705
F514.0675860441904
aF457.76090281238527
aF0.0
aF0.0
aF0.0
aF0.0
aF0.0
aa(lp1706
F516.054921986853
aF460.0067393710995
aF0.0
aF0.0
aF0.0
aF0.0
aF0.0
aa(lp1707
F518.0420580063784
aF462.2526758913822
aF0.0
aF0.0
aF0.0
aF0.0
aF0.0
aa(lp1708
F519.2951762286618
aF463.66893139340124
aF0.0
aF0.0
aF0.0
aF0.0
aF0.0
aa(lp1709
F521.1787520632572
aF466.00243424765966
aF0.0
aF0.0
aF0.0
aF0.0
aF0.0
aa(lp1710
F523.0623278978525
aF468.33593710191815
aF0.0
aF0.0
aF0.0
aF0.0
aF0.0
aa(lp1711
F524.9458037708793
aF470.6694399561766
aF0.0
aF0.0
aF0.0
aF0.0
aF0.0
aa(lp1712
F526.8293796054744
aF473.0030427720035
aF0.0
aF0.0
aF0.0
aF0.0
aF0.0
aa(lp1713
F527.578291676418
aF473.9308860505002
aF0.0
aF0.0
aF0.0
aF0.0
aF0.0
aa(lp1714
F529.2100643200487
aF476.44691872877655
aF0.0
aF0.0
aF0.0
aF0.0
aF0.0
aa(lp1715
F530.8417370021109
aF478.962951407053
aF0.0
aF0.0
aF0.0
aF0.0
aF0.0
aa(lp1716
F532.4735096457415
aF481.47898408532944
aF0.0
aF0.0
aF0.0
aF0.0
aF0.0
aa(lp1717
F532.9422294402762
aF482.201706225335
aF0.0
aF0.0
aF0.0
aF0.0
aF0.0
aa(lp1718
F534.1060819819199
aF484.96554363183736
aF0.0
aF0.0
aF0.0
aF0.0
aF0.0
aa(lp1719
F534.8499959744402
aF486.7318645466226
aF0.0
aF0.0
aF0.0
aF0.0
aF0.0
aa(lp1720
F536.7961477508948
aF493.41519505265694
aF0.0
aF0.0
aF0.0
aF0.0
aF0.0
aa(lp1721
F537.5461593990914
aF495.8085748864262
aF0.0
aF0.0
aF0.0
aF0.0
aF0.0
aa(lp1722
F537.8110575555249
aF497.0440998726597
aF0.0
aF0.0
aF0.0
aF0.0
aF0.0
aa(lp1723
F538.1186393016933
aF498.478648341708
aF0.0
aF0.0
aF0.0
aF0.0
aF0.0
aa(lp1724
F538.2786777728065
aF499.22466152716595
aF0.0
aF0.0
aF0.0
aF0.0
aF0.0
aa(lp1725
F538.9074360384545
aF502.1568342149642
aF0.0
aF0.0
aF0.0
aF0.0
aF0.0
aa(lp1726
F539.0493814656754
aF502.81887968291113
aF0.0
aF0.0
aF0.0
aF0.0
aF0.0
aa(lp1727
F539.59237270558
aF505.76814579891703
aF0.0
aF0.0
aF0.0
aF0.0
aF0.0
aa(lp1728
F540.135463907053
aF508.717411914923
aF0.0
aF0.0
aF0.0
aF0.0
aF0.0
aa(lp1729
F540.3300890808554
aF509.7748053861509
aF0.0
aF0.0
aF0.0
aF0.0
aF0.0
aa(lp1730
F540.6991471916299
aF512.7508612025056
aF0.0
aF0.0
aF0.0
aF0.0
aF0.0
aa(lp1731
F541.0628073777075
aF515.6840335059885
aF0.0
aF0.0
aF0.0
aF0.0
aF0.0
aa(lp1732
F541.3573941199752
aF518.6683861325257
aF0.0
aF0.0
aF0.0
aF0.0
aF0.0
aa(lp1733
F541.5061369338518
aF520.1744071230268
aF0.0
aF0.0
aF0.0
aF0.0
aF0.0
aa(lp1734
F541.9485668358801
aF523.1404667825349
aF0.0
aF0.0
aF0.0
aF0.0
aF0.0
aa(lp1735
F542.050527635715
aF523.8237041029964
aF0.0
aF0.0
aF0.0
aF0.0
aF0.0
aa(lp1736
F542.4008929331865
aF526.8019590738573
aF0.0
aF0.0
aF0.0
aF0.0
aF0.0
aa(lp1737
F542.6076134567732
aF528.5593834090492
aF0.0
aF0.0
aF0.0
aF0.0
aF0.0
aa(lp1738
F542.7753489686581
aF531.553532269296
aF0.0
aF0.0
aF0.0
aF0.0
aF0.0
aa(lp1739
F542.9430844805433
aF534.547681129543
aF0.0
aF0.0
aF0.0
aF0.0
aF0.0
aa(lp1740
F543.1108199924283
aF537.5418299897898
aF0.0
aF0.0
aF0.0
aF0.0
aF0.0
aa(lp1741
F543.2041840973752
aF539.2098886827735
aF0.0
aF0.0
aF0.0
aF0.0
aF0.0
aa(lp1742
F543.3247377489446
aF542.2063366590951
aF0.0
aF0.0
aF0.0
aF0.0
aF0.0
aa(lp1743
F543.445291400514
aF545.2026846738481
aF0.0
aF0.0
aF0.0
aF0.0
aF0.0
aa(lp1744
F543.5658450520833
aF548.1991326501698
aF0.0
aF0.0
aF0.0
aF0.0
aF0.0
aa(lp1745
F543.6429154213703
aF550.1132967247155
aF0.0
aF0.0
aF0.0
aF0.0
aF0.0
aa(lp1746
F543.698693976574
aF553.1116439708379
aF0.0
aF0.0
aF0.0
aF0.0
aF0.0
aa(lp1747
F543.7543725702093
aF556.1099912169605
aF0.0
aF0.0
aF0.0
aF0.0
aF0.0
aa(lp1748
F543.7735651913546
aF557.142594219209
aF0.0
aF0.0
aF0.0
aF0.0
aF0.0
aa(lp1749
F543.8515352147576
aF560.1404416574891
aF0.0
aF0.0
aF0.0
aF0.0
aF0.0
aa(lp1750
F543.9013160758535
aF562.0578045022256
aF0.0
aF0.0
aF0.0
aF0.0
aF0.0
aa(lp1751
F544.1001396355314
aF565.0500540926716
aF0.0
aF0.0
aF0.0
aF0.0
aF0.0
aa(lp1752
F544.2600781450761
aF567.4567288150467
aF0.0
aF0.0
aF0.0
aF0.0
aF0.0
aa(lp1753
F544.3050608508856
aF570.4551760227376
aF0.0
aF0.0
aF0.0
aF0.0
aF0.0
aa(lp1754
F544.3507432876744
aF573.5087020546531
aF0.0
aF0.0
aF0.0
aF0.0
aF0.0
aa(lp1755
F544.0340650387758
aF576.4908555266841
aF0.0
aF0.0
aF0.0
aF0.0
aF0.0
aa(lp1756
F543.7173867898771
aF579.4729090371467
aF0.0
aF0.0
aF0.0
aF0.0
aF0.0
aa(lp1757
F543.6847993185572
aF579.7797910523358
aF0.0
aF0.0
aF0.0
aF0.0
aF0.0
aa(lp1758
F543.126214073972
aF582.7261582828561
aF0.0
aF0.0
aF0.0
aF0.0
aF0.0
aa(lp1759
F542.5677287909555
aF585.6725255133765
aF0.0
aF0.0
aF0.0
aF0.0
aF0.0
aa(lp1760
F541.892688319108
aF588.712356810412
aF0.0
aF0.0
aF0.0
aF0.0
aF0.0
aa(lp1761
F541.3526959262574
aF591.1304271515924
aF0.0
aF0.0
aF0.0
aF0.0
aF0.0
aa(lp1762
F540.7492279374312
aF593.6545567169144
aF0.0
aF0.0
aF0.0
aF0.0
aF0.0
aa(lp1763
F539.9902197480726
aF596.5557413184885
aF0.0
aF0.0
aF0.0
aF0.0
aF0.0
aa(lp1764
F539.3886510290474
aF599.6031696947274
aF0.0
aF0.0
aF0.0
aF0.0
aF0.0
aa(lp1765
F538.7402003344117
aF603.3675224400009
aF0.0
aF0.0
aF0.0
aF0.0
aF0.0
aa(lp1766
F538.2969707398357
aF606.0373959721458
aF0.0
aF0.0
aF0.0
aF0.0
aF0.0
aa(lp1767
F537.8453443735087
aF609.0020561696954
aF0.0
aF0.0
aF0.0
aF0.0
aF0.0
aa(lp1768
F537.4815842258627
aF611.3893383477881
aF0.0
aF0.0
aF0.0
aF0.0
aF0.0
aa(lp1769
F537.1228221566402
aF614.268131558026
aF0.0
aF0.0
aF0.0
aF0.0
aF0.0
aa(lp1770
F536.7809535924881
aF617.2474861061398
aF0.0
aF0.0
aF0.0
aF0.0
aF0.0
aa(lp1771
F536.5976240759225
aF618.8451718549239
aF0.0
aF0.0
aF0.0
aF0.0
aF0.0
aa(lp1772
F542.4723654546393
aF614.6543830585765
aF0.0
aF0.0
aF0.0
aF0.0
aF0.0
aaa(lp1773
(lp1774
F542.173780249633
aF611.9740135617428
aF0.0
aF0.0
aF0.0
aF0.0
aF0.0
aa(lp1775
F542.0935111101551
aF613.2651171800431
aF0.0
aF0.0
aF0.0
aF0.0
aF0.0
aa(lp1776
F542.4723654546393
aF614.6543830585765
aF0.0
aF0.0
aF0.0
aF0.0
aF0.0
aa(lp1777
F542.313826407053
aF616.2540680387299
aF0.0
aF0.0
aF0.0
aF0.0
aF0.0
aa(lp1778
F542.2420540008948
aF616.9785894869677
aF0.0
aF0.0
aF0.0
aF0.0
aF0.0
aa(lp1779
F542.1802777515832
aF619.9595434201772
aF0.0
aF0.0
aF0.0
aF0.0
aF0.0
aa(lp1780
F542.7810467780607
aF621.131592810435
aF0.0
aF0.0
aF0.0
aF0.0
aF0.0
aa(lp1781
F543.8047532007158
aF621.837021599096
aF0.0
aF0.0
aF0.0
aF0.0
aF0.0
aa(lp1782
F544.9677060882434
aF622.4594822859307
aF0.0
aF0.0
aF0.0
aF0.0
aF0.0
aa(lp1783
F547.0975872275377
aF622.1154145672724
aF0.0
aF0.0
aF0.0
aF0.0
aF0.0
aa(lp1784
F549.7676606828194
aF621.428378707209
aF0.0
aF0.0
aF0.0
aF0.0
aF0.0
aa(lp1785
F552.4076457059931
aF620.0058256263767
aF0.0
aF0.0
aF0.0
aF0.0
aF0.0
aa(lp1786
F553.9182649286436
aF619.1918385743621
aF0.0
aF0.0
aF0.0
aF0.0
aF0.0
aa(lp1787
F556.3835171301396
aF617.4844949849717
aF0.0
aF0.0
aF0.0
aF0.0
aF0.0
aa(lp1788
F558.8554667567226
aF615.772453201863
aF0.0
aF0.0
aF0.0
aF0.0
aF0.0
aa(lp1789
F561.0323298331956
aF613.7098461981461
aF0.0
aF0.0
aF0.0
aF0.0
aF0.0
aa(lp1790
F562.4135987862518
aF612.4009494206589
aF0.0
aF0.0
aF0.0
aF0.0
aF0.0
aa(lp1791
F563.3283470992795
aF611.1564278932636
aF0.0
aF0.0
aF0.0
aF0.0
aF0.0
aa(lp1792
F563.9334144732012
aF609.989576504566
aF0.0
aF0.0
aF0.0
aF0.0
aF0.0
aa(lp1793
F564.5790662439198
aF608.3965889494998
aF0.0
aF0.0
aF0.0
aF0.0
aF0.0
aa(lp1794
F564.8114768906021
aF606.8255929394961
aF0.0
aF0.0
aF0.0
aF0.0
aF0.0
aa(lp1795
F564.9958060228524
aF605.9136435503855
aF0.0
aF0.0
aF0.0
aF0.0
aF0.0
aa(lp1796
F564.989708367176
aF603.9533971927773
aF0.0
aF0.0
aF0.0
aF0.0
aF0.0
aa(lp1797
F564.7398044460123
aF600.9649461419328
aF0.0
aF0.0
aF0.0
aF0.0
aF0.0
aa(lp1798
F564.3232645902166
aF596.9025079994952
aF0.0
aF0.0
aF0.0
aF0.0
aF0.0
aa(lp1799
F564.1243410689702
aF593.9102584090492
aF0.0
aF0.0
aF0.0
aF0.0
aF0.0
aa(lp1800
F564.0618650886793
aF592.9701198576312
aF0.0
aF0.0
aF0.0
aF0.0
aF0.0
aa(lp1801
F563.6283317662445
aF590.0027606977332
aF0.0
aF0.0
aF0.0
aF0.0
aF0.0
aa(lp1802
F562.9115073587784
aF586.7994922362564
aF0.0
aF0.0
aF0.0
aF0.0
aF0.0
aa(lp1803
F562.2441639277029
aF583.8758162817776
aF0.0
aF0.0
aF0.0
aF0.0
aF0.0
aa(lp1804
F561.9133910976506
aF580.5884801412216
aF0.0
aF0.0
aF0.0
aF0.0
aF0.0
aa(lp1805
F561.8440177691355
aF579.797884096228
aF0.0
aF0.0
aF0.0
aF0.0
aF0.0
aa(lp1806
F562.155298093337
aF576.8152308163546
aF0.0
aF0.0
aF0.0
aF0.0
aF0.0
aa(lp1807
F562.2846483629313
aF575.5766070214987
aF0.0
aF0.0
aF0.0
aF0.0
aF0.0
aa(lp1808
F562.9403962520649
aF571.29145450452
aF0.0
aF0.0
aF0.0
aF0.0
aF0.0
aa(lp1809
F563.4333067461685
aF569.3266099147622
aF0.0
aF0.0
aF0.0
aF0.0
aF0.0
aa(lp1810
F564.8616575979718
aF566.6897237002111
aF0.0
aF0.0
aF0.0
aF0.0
aF0.0
aa(lp1811
F564.9994046393173
aF566.4356213931718
aF0.0
aF0.0
aF0.0
aF0.0
aF0.0
aa(lp1812
F565.9380437672081
aF565.0165669672357
aF0.0
aF0.0
aF0.0
aF0.0
aF0.0
aa(lp1813
F565.9692317765694
aF563.1589811404415
aF0.0
aF0.0
aF0.0
aF0.0
aF0.0
aa(lp1814
F565.585179430525
aF561.3079927771659
aF0.0
aF0.0
aF0.0
aF0.0
aF0.0
aa(lp1815
F563.5988431035472
aF558.4857778146796
aF0.0
aF0.0
aF0.0
aF0.0
aF0.0
aa(lp1816
F563.092237874564
aF555.3975651185068
aF0.0
aF0.0
aF0.0
aF0.0
aF0.0
aa(lp1817
F562.7815573197732
aF552.207191699362
aF0.0
aF0.0
aF0.0
aF0.0
aF0.0
aa(lp1818
F562.5043638904185
aF549.221139726161
aF0.0
aF0.0
aF0.0
aF0.0
aF0.0
aa(lp1819
F562.252560699454
aF546.5081827580076
aF0.0
aF0.0
aF0.0
aF0.0
aF0.0
aa(lp1820
F562.0084545492612
aF543.5193318608893
aF0.0
aF0.0
aF0.0
aF0.0
aF0.0
aa(lp1821
F561.7643483990685
aF540.5303810022027
aF0.0
aF0.0
aF0.0
aF0.0
aF0.0
aa(lp1822
F561.5202422488758
aF537.5415301050845
aF0.0
aF0.0
aF0.0
aF0.0
aF0.0
aa(lp1823
F561.276136098683
aF534.5526792079662
aF0.0
aF0.0
aF0.0
aF0.0
aF0.0
aa(lp1824
F561.0320299484903
aF531.5637283492796
aF0.0
aF0.0
aF0.0
aF0.0
aF0.0
aa(lp1825
F560.9210726074936
aF530.205550518539
aF0.0
aF0.0
aF0.0
aF0.0
aF0.0
aa(lp1826
F560.6745673796577
aF527.2168995445576
aF0.0
aF0.0
aF0.0
aF0.0
aF0.0
aa(lp1827
F560.4280621518218
aF524.2281486090079
aF0.0
aF0.0
aF0.0
aF0.0
aF0.0
aa(lp1828
F560.1815569239859
aF521.2394976350266
aF0.0
aF0.0
aF0.0
aF0.0
aF0.0
aa(lp1829
F559.93505169615
aF518.250746699477
aF0.0
aF0.0
aF0.0
aF0.0
aF0.0
aa(lp1830
F559.688546468314
aF515.2620957254956
aF0.0
aF0.0
aF0.0
aF0.0
aF0.0
aa(lp1831
F559.4317451989263
aF511.50883871432177
aF0.0
aF0.0
aF0.0
aF0.0
aF0.0
aa(lp1832
F559.2375198713978
aF508.5161892776019
aF0.0
aF0.0
aF0.0
aF0.0
aF0.0
aa(lp1833
F559.082279555571
aF506.1231093285381
aF0.0
aF0.0
aF0.0
aF0.0
aF0.0
aa(lp1834
F559.2611108015556
aF502.22620754347923
aF0.0
aF0.0
aF0.0
aF0.0
aF0.0
aa(lp1835
F559.652460342098
aF499.25305061261014
aF0.0
aF0.0
aF0.0
aF0.0
aF0.0
aa(lp1836
F560.0439098442089
aF496.2797937201725
aF0.0
aF0.0
aF0.0
aF0.0
aF0.0
aa(lp1837
F560.2698229889409
aF494.4980787238436
aF0.0
aF0.0
aF0.0
aF0.0
aF0.0
aa(lp1838
F560.5156284857976
aF491.50932778829383
aF0.0
aF0.0
aF0.0
aF0.0
aF0.0
aa(lp1839
F560.7615339442226
aF488.5205768527441
aF0.0
aF0.0
aF0.0
aF0.0
aF0.0
aa(lp1840
F561.0074394026477
aF485.5318259171944
aF0.0
aF0.0
aF0.0
aF0.0
aF0.0
aa(lp1841
F561.0257323696769
aF485.30881165794784
aF0.0
aF0.0
aF0.0
aF0.0
aF0.0
aa(lp1842
F561.1929680737197
aF482.3145628361325
aF0.0
aF0.0
aF0.0
aF0.0
aF0.0
aa(lp1843
F561.3602037777624
aF479.3204139758857
aF0.0
aF0.0
aF0.0
aF0.0
aF0.0
aa(lp1844
F560.4606496231415
aF476.2433969753809
aF0.0
aF0.0
aF0.0
aF0.0
aF0.0
aa(lp1845
F559.5488001955993
aF473.38649534863714
aF0.0
aF0.0
aF0.0
aF0.0
aF0.0
aa(lp1846
F559.3684695260876
aF472.8215125636701
aF0.0
aF0.0
aF0.0
aF0.0
aF0.0
aa(lp1847
F557.868146344989
aF470.22491086121056
aF0.0
aF0.0
aF0.0
aF0.0
aF0.0
aa(lp1848
F555.4951586711867
aF467.717874724096
aF0.0
aF0.0
aF0.0
aF0.0
aF0.0
aa(lp1849
F554.8575038259454
aF467.0912156513859
aF0.0
aF0.0
aF0.0
aF0.0
aF0.0
aa(lp1850
F553.0042163465951
aF464.7335220975587
aF0.0
aF0.0
aF0.0
aF0.0
aF0.0
aa(lp1851
F551.8228705304699
aF463.2305999156801
aF0.0
aF0.0
aF0.0
aF0.0
aF0.0
aa(lp1852
F551.0486681827047
aF460.33341377684474
aF0.0
aF0.0
aF0.0
aF0.0
aF0.0
aa(lp1853
F550.2745657965079
aF457.43622763800937
aF0.0
aF0.0
aF0.0
aF0.0
aF0.0
aa(lp1854
F549.5003634487426
aF454.53904149917406
aF0.0
aF0.0
aF0.0
aF0.0
aF0.0
aa(lp1855
F549.2913438090812
aF453.75704214906847
aF0.0
aF0.0
aF0.0
aF0.0
aF0.0
aa(lp1856
F549.0516359679011
aF450.7677914056764
aF0.0
aF0.0
aF0.0
aF0.0
aF0.0
aa(lp1857
F548.8118281651523
aF447.77854066228434
aF0.0
aF0.0
aF0.0
aF0.0
aF0.0
aa(lp1858
F548.5720203624036
aF444.78928991889217
aF0.0
aF0.0
aF0.0
aF0.0
aF0.0
aa(lp1859
F548.3323125212233
aF441.8000391755002
aF0.0
aF0.0
aF0.0
aF0.0
aF0.0
aa(lp1860
F548.0926046800431
aF438.81078843210815
aF0.0
aF0.0
aF0.0
aF0.0
aF0.0
aa(lp1861
F547.8509975690621
aF435.7992462589482
aF0.0
aF0.0
aF0.0
aF0.0
aF0.0
aa(lp1862
F545.9327350702093
aF429.3107408498532
aF0.0
aF0.0
aF0.0
aF0.0
aF0.0
aaa(lp1863
(lp1864
F249.50100213323697
aF338.0224378338381
aF0.0
aF0.0
aF0.0
aF0.0
aF0.0
aa(lp1865
F251.74783830763585
aF343.53181967981374
aF0.0
aF0.0
aF0.0
aF0.0
aF0.0
aa(lp1866
F254.1550128378533
aF346.5609550890235
aF0.0
aF0.0
aF0.0
aF0.0
aF0.0
aa(lp1867
F256.00030339172633
aF348.9249462216639
aF0.0
aF0.0
aF0.0
aF0.0
aF0.0
aa(lp1868
F257.8454939840309
aF351.2888373927359
aF0.0
aF0.0
aF0.0
aF0.0
aF0.0
aa(lp1869
F258.2830257692043
aF351.8495218302588
aF0.0
aF0.0
aF0.0
aF0.0
aF0.0
aa(lp1870
F260.06664003533405
aF354.26029497694105
aF0.0
aF0.0
aF0.0
aF0.0
aF0.0
aa(lp1871
F261.8502543014638
aF356.6710681236234
aF0.0
aF0.0
aF0.0
aF0.0
aF0.0
aa(lp1872
F263.63386856759365
aF359.08184127030563
aF0.0
aF0.0
aF0.0
aF0.0
aF0.0
aa(lp1873
F265.56882464838014
aF361.71542875309746
aF0.0
aF0.0
aF0.0
aF0.0
aF0.0
aa(lp1874
F267.343642296485
aF364.13269940173
aF0.0
aF0.0
aF0.0
aF0.0
aF0.0
aa(lp1875
F268.68812539234585
aF365.96379541288087
aF0.0
aF0.0
aF0.0
aF0.0
aF0.0
aa(lp1876
F270.4232582977698
aF368.409755031663
aF0.0
aF0.0
aF0.0
aF0.0
aF0.0
aa(lp1877
F272.15839120319384
aF370.85561468887664
aF0.0
aF0.0
aF0.0
aF0.0
aF0.0
aa(lp1878
F273.30694962486234
aF372.4747921748807
aF0.0
aF0.0
aF0.0
aF0.0
aF0.0
aa(lp1879
F274.9857042056718
aF374.9597368053644
aF0.0
aF0.0
aF0.0
aF0.0
aF0.0
aa(lp1880
F276.3905640888858
aF377.039237314152
aF0.0
aF0.0
aF0.0
aF0.0
aF0.0
aa(lp1881
F277.7527403823651
aF379.0556620732379
aF0.0
aF0.0
aF0.0
aF0.0
aF0.0
aa(lp1882
F280.5340710633489
aF383.71627024137297
aF0.0
aF0.0
aF0.0
aF0.0
aF0.0
aa(lp1883
F282.1845365202827
aF386.22000764672816
aF0.0
aF0.0
aF0.0
aF0.0
aF0.0
aa(lp1884
F283.8350019772164
aF388.7238450136518
aF0.0
aF0.0
aF0.0
aF0.0
aF0.0
aa(lp1885
F285.57033480577735
aF391.60373780114264
aF0.0
aF0.0
aF0.0
aF0.0
aF0.0
aa(lp1886
F286.47438723097923
aF393.134949106897
aF0.0
aF0.0
aF0.0
aF0.0
aF0.0
aa(lp1887
F287.9991010347834
aF395.7172563050661
aF0.0
aF0.0
aF0.0
aF0.0
aF0.0
aa(lp1888
F288.71702501950256
aF396.9331888238803
aF0.0
aF0.0
aF0.0
aF0.0
aF0.0
aa(lp1889
F290.0260217585582
aF399.1503364124449
aF0.0
aF0.0
aF0.0
aF0.0
aF0.0
aaa(lp1890
(lp1891
F229.81207180043134
aF203.19797286561587
aF0.0
aF0.0
aF0.0
aF0.0
aF0.0
aa(lp1892
F228.24007617474308
aF198.92171692823055
aF0.0
aF0.0
aF0.0
aF0.0
aF0.0
aa(lp1893
F228.61343263296158
aF195.9461609197182
aF0.0
aF0.0
aF0.0
aF0.0
aF0.0
aa(lp1894
F228.69590092694568
aF195.2888136454891
aF0.0
aF0.0
aF0.0
aF0.0
aF0.0
aa(lp1895
F229.04276756952095
aF192.31005886678602
aF0.0
aF0.0
aF0.0
aF0.0
aF0.0
aa(lp1896
F229.38963421209615
aF189.3314040496512
aF0.0
aF0.0
aF0.0
aF0.0
aF0.0
aa(lp1897
F229.7366008162399
aF186.3526492709481
aF0.0
aF0.0
aF0.0
aF0.0
aF0.0
aa(lp1898
F229.8529560819337
aF185.35323350943005
aF0.0
aF0.0
aF0.0
aF0.0
aF0.0
aa(lp1899
F230.28129140280834
aF182.38507465698422
aF0.0
aF0.0
aF0.0
aF0.0
aF0.0
aa(lp1900
F230.70962672368307
aF179.41701576610683
aF0.0
aF0.0
aF0.0
aF0.0
aF0.0
aa(lp1901
F231.13796204455764
aF176.44895687522944
aF0.0
aF0.0
aF0.0
aF0.0
aF0.0
aa(lp1902
F231.3428832599119
aF175.02850298733475
aF0.0
aF0.0
aF0.0
aF0.0
aF0.0
aa(lp1903
F231.73213360751652
aF172.05504617176032
aF0.0
aF0.0
aF0.0
aF0.0
aF0.0
aa(lp1904
F232.12138395512113
aF169.08148939461725
aF0.0
aF0.0
aF0.0
aF0.0
aF0.0
aa(lp1905
F232.48244514041846
aF166.3237496437913
aF0.0
aF0.0
aF0.0
aF0.0
aF0.0
aa(lp1906
F232.64168391898409
aF163.32910097570206
aF0.0
aF0.0
aF0.0
aF0.0
aF0.0
aa(lp1907
F232.80092269754954
aF160.3345522691814
aF0.0
aF0.0
aF0.0
aF0.0
aF0.0
aa(lp1908
F232.9601614761151
aF157.33990360109215
aF0.0
aF0.0
aF0.0
aF0.0
aF0.0
aa(lp1909
F233.0051441819246
aF156.49262934677859
aF0.0
aF0.0
aF0.0
aF0.0
aF0.0
aa(lp1910
F233.1280969111371
aF153.49628133202552
aF0.0
aF0.0
aF0.0
aF0.0
aF0.0
aa(lp1911
F233.25104964034972
aF150.49993331727245
aF0.0
aF0.0
aF0.0
aF0.0
aF0.0
aa(lp1912
F233.37400236956222
aF147.50358530251927
aF0.0
aF0.0
aF0.0
aF0.0
aF0.0
aa(lp1913
F233.39049602835905
aF147.10263945140414
aF0.0
aF0.0
aF0.0
aF0.0
aF0.0
aa(lp1914
F233.75535575325807
aF144.12608382720728
aF0.0
aF0.0
aF0.0
aF0.0
aF0.0
aa(lp1915
F234.1202154781571
aF141.1495282030103
aF0.0
aF0.0
aF0.0
aF0.0
aF0.0
aa(lp1916
F234.48537508776155
aF138.17007369332785
aF0.0
aF0.0
aF0.0
aF0.0
aF0.0
aa(lp1917
F234.55025014569566
aF137.80721319979807
aF0.0
aF0.0
aF0.0
aF0.0
aF0.0
aa(lp1918
F235.0782471503304
aF134.85514815987523
aF0.0
aF0.0
aF0.0
aF0.0
aF0.0
aa(lp1919
F235.60614419339663
aF131.90318308152075
aF0.0
aF0.0
aF0.0
aF0.0
aF0.0
aa(lp1920
F236.0115883150927
aF129.63535497774413
aF0.0
aF0.0
aF0.0
aF0.0
aF0.0
aa(lp1921
F236.54488328285606
aF126.68428955350585
aF0.0
aF0.0
aF0.0
aF0.0
aF0.0
aa(lp1922
F237.07807828905106
aF123.73332409083608
aF0.0
aF0.0
aF0.0
aF0.0
aF0.0
aa(lp1923
F237.48862045073884
aF121.46139756275241
aF0.0
aF0.0
aF0.0
aF0.0
aF0.0
aa(lp1924
F237.9863291001285
aF118.50413452126932
aF0.0
aF0.0
aF0.0
aF0.0
aF0.0
aa(lp1925
F238.48413771108665
aF115.5468714797861
aF0.0
aF0.0
aF0.0
aF0.0
aF0.0
aa(lp1926
F238.61428767322872
aF114.7733688630002
aF0.0
aF0.0
aF0.0
aF0.0
aF0.0
aa(lp1927
F240.9652838019686
aF111.95615197893721
aF0.0
aF0.0
aF0.0
aF0.0
aF0.0
aa(lp1928
F241.48988211327554
aF109.00358713117195
aF0.0
aF0.0
aF0.0
aF0.0
aF0.0
aa(lp1929
F241.89522627340307
aF106.72276402349483
aF0.0
aF0.0
aF0.0
aF0.0
aF0.0
aa(lp1930
F242.0979483342511
aF105.3401955700486
aF0.0
aF0.0
aF0.0
aF0.0
aF0.0
aa(lp1931
F242.81797151190807
aF100.95538136930983
aF0.0
aF0.0
aF0.0
aF0.0
aF0.0
aa(lp1932
F243.43153561914926
aF98.02000991132064
aF0.0
aF0.0
aF0.0
aF0.0
aF0.0
aa(lp1933
F243.82788323811496
aF96.1239388806672
aF0.0
aF0.0
aF0.0
aF0.0
aF0.0
aa(lp1934
F244.2427237472467
aF93.153980719989
aF0.0
aF0.0
aF0.0
aF0.0
aF0.0
aa(lp1935
F244.65766421794694
aF90.18402255931078
aF0.0
aF0.0
aF0.0
aF0.0
aF0.0
aa(lp1936
F244.84959042940068
aF88.81005080075259
aF0.0
aF0.0
aF0.0
aF0.0
aF0.0
aa(lp1937
F244.95904834687042
aF88.02675195025701
aF0.0
aF0.0
aF0.0
aF0.0
aF0.0
aa(lp1938
F245.35389654230914
aF85.05409482723022
aF0.0
aF0.0
aF0.0
aF0.0
aF0.0
aa(lp1939
F245.57171279999545
aF83.41462514282762
aF0.0
aF0.0
aF0.0
aF0.0
aF0.0
aa(lp1940
F245.60400038660975
aF80.41597801199985
aF0.0
aF0.0
aF0.0
aF0.0
aF0.0
aa(lp1941
F245.6361880116557
aF77.41723091960354
aF0.0
aF0.0
aF0.0
aF0.0
aF0.0
aa(lp1942
F245.66847559827
aF74.41858378877566
aF0.0
aF0.0
aF0.0
aF0.0
aF0.0
aa(lp1943
F245.7007631848844
aF71.4199366579479
aF0.0
aF0.0
aF0.0
aF0.0
aF0.0
aa(lp1944
F245.71465784290103
aF70.13433092591318
aF0.0
aF0.0
aF0.0
aF0.0
aF0.0
aa(lp1945
F245.6435851677221
aF67.13628356449618
aF0.0
aF0.0
aF0.0
aF0.0
aF0.0
aa(lp1946
F245.60080161641883
aF65.32877848350309
aF0.0
aF0.0
aF0.0
aF0.0
aF0.0
aa(lp1947
F243.85267370709437
aF58.96702434322227
aF0.0
aF0.0
aF0.0
aF0.0
aF0.0
aa(lp1948
F243.13824837727157
aF61.87960456360137
aF0.0
aF0.0
aF0.0
aF0.0
aF0.0
aa(lp1949
F242.67602608468707
aF63.76388012917588
aF0.0
aF0.0
aF0.0
aF0.0
aF0.0
aa(lp1950
F242.20410751996144
aF66.72544151810294
aF0.0
aF0.0
aF0.0
aF0.0
aF0.0
aa(lp1951
F241.73218895523587
aF69.68690294546167
aF0.0
aF0.0
aF0.0
aF0.0
aF0.0
aa(lp1952
F240.96568364824248
aF74.4969536584526
aF0.0
aF0.0
aF0.0
aF0.0
aF0.0
aa(lp1953
F240.36111608216316
aF77.43422438624262
aF0.0
aF0.0
aF0.0
aF0.0
aF0.0
aa(lp1954
F239.75644855451543
aF80.37149511403263
aF0.0
aF0.0
aF0.0
aF0.0
aF0.0
aa(lp1955
F239.36429932142528
aF82.27646272427953
aF0.0
aF0.0
aF0.0
aF0.0
aF0.0
aa(lp1956
F238.5776017776019
aF85.17025016978707
aF0.0
aF0.0
aF0.0
aF0.0
aF0.0
aa(lp1957
F237.45683267196682
aF89.29266525330398
aF0.0
aF0.0
aF0.0
aF0.0
aF0.0
aa(lp1958
F236.32556760164277
aF92.2361335983389
aF0.0
aF0.0
aF0.0
aF0.0
aF0.0
aa(lp1959
F235.32135368483853
aF94.34862142472011
aF0.0
aF0.0
aF0.0
aF0.0
aF0.0
aa(lp1960
F234.19538657764315
aF97.12805283590306
aF0.0
aF0.0
aF0.0
aF0.0
aF0.0
aa(lp1961
F233.0693195088794
aF99.9073842855176
aF0.0
aF0.0
aF0.0
aF0.0
aF0.0
aa(lp1962
F232.47004990592882
aF101.38661557567002
aF0.0
aF0.0
aF0.0
aF0.0
aF0.0
aa(lp1963
F231.34878099245134
aF104.16794625665379
aF0.0
aF0.0
aF0.0
aF0.0
aF0.0
aa(lp1964
F230.2274121174055
aF106.94917697606915
aF0.0
aF0.0
aF0.0
aF0.0
aF0.0
aa(lp1965
F229.842060270971
aF107.9051094553047
aF0.0
aF0.0
aF0.0
aF0.0
aF0.0
aa(lp1966
F228.76017621546902
aF110.70193417940071
aF0.0
aF0.0
aF0.0
aF0.0
aF0.0
aa(lp1967
F227.67829215996693
aF113.49895882663364
aF0.0
aF0.0
aF0.0
aF0.0
aF0.0
aa(lp1968
F227.42418985292773
aF114.15570633145195
aF0.0
aF0.0
aF0.0
aF0.0
aF0.0
aa(lp1969
F227.08162155779644
aF114.99438389087737
aF0.0
aF0.0
aF0.0
aF0.0
aF0.0
aa(lp1970
F226.0192300081452
aF117.79870573260825
aF0.0
aF0.0
aF0.0
aF0.0
aF0.0
aa(lp1971
F224.95673849692548
aF120.60302757433922
aF0.0
aF0.0
aF0.0
aF0.0
aF0.0
aa(lp1972
F224.54359733445762
aF121.6935083247292
aF0.0
aF0.0
aF0.0
aF0.0
aF0.0
aa(lp1973
F223.5312865306076
aF124.51632305662633
aF0.0
aF0.0
aF0.0
aF0.0
aF0.0
aa(lp1974
F222.51887576518908
aF127.33913778852335
aF0.0
aF0.0
aF0.0
aF0.0
aF0.0
aa(lp1975
F222.01926784599846
aF128.73250209136384
aF0.0
aF0.0
aF0.0
aF0.0
aF0.0
aa(lp1976
F221.0127548131195
aF131.55741601619854
aF0.0
aF0.0
aF0.0
aF0.0
aF0.0
aa(lp1977
F220.00624178024043
aF134.38222997946494
aF0.0
aF0.0
aF0.0
aF0.0
aF0.0
aa(lp1978
F219.48884070186313
aF135.83447164613165
aF0.0
aF0.0
aF0.0
aF0.0
aF0.0
aa(lp1979
F218.82569565666302
aF137.53131927083336
aF0.0
aF0.0
aF0.0
aF0.0
aF0.0
aa(lp1980
F217.59696805708518
aF140.2669675150284
aF0.0
aF0.0
aF0.0
aF0.0
aF0.0
aa(lp1981
F216.36834041907576
aF143.00251579765512
aF0.0
aF0.0
aF0.0
aF0.0
aF0.0
aa(lp1982
F215.77576824121235
aF144.32190853983113
aF0.0
aF0.0
aF0.0
aF0.0
aF0.0
aa(lp1983
F214.40899371558368
aF146.9910823409967
aF0.0
aF0.0
aF0.0
aF0.0
aF0.0
aa(lp1984
F213.04211922838658
aF149.66035610373072
aF0.0
aF0.0
aF0.0
aF0.0
aF0.0
aa(lp1985
F212.50292652808366
aF150.71345122751467
aF0.0
aF0.0
aF0.0
aF0.0
aF0.0
aa(lp1986
F211.3682627644319
aF153.34443970952648
aF0.0
aF0.0
aF0.0
aF0.0
aF0.0
aa(lp1987
F210.07595960731004
aF156.05049932945576
aF0.0
aF0.0
aF0.0
aF0.0
aF0.0
aa(lp1988
F208.78355648861964
aF158.75655894938507
aF0.0
aF0.0
aF0.0
aF0.0
aF0.0
aa(lp1989
F207.92218765315255
aF160.5602654907764
aF0.0
aF0.0
aF0.0
aF0.0
aF0.0
aa(lp1990
F207.07191455178503
aF163.43605985396013
aF0.0
aF0.0
aF0.0
aF0.0
aF0.0
aa(lp1991
F206.22164145041756
aF166.31185421714395
aF0.0
aF0.0
aF0.0
aF0.0
aF0.0
aa(lp1992
F205.47872707358204
aF168.82478808679787
aF0.0
aF0.0
aF0.0
aF0.0
aF0.0
aa(lp1993
F204.6290537416254
aF171.70078237311859
aF0.0
aF0.0
aF0.0
aF0.0
aF0.0
aa(lp1994
F203.77948037123713
aF174.57667669787074
aF0.0
aF0.0
aF0.0
aF0.0
aF0.0
aa(lp1995
F202.9298070392805
aF177.45267098419146
aF0.0
aF0.0
aF0.0
aF0.0
aF0.0
aa(lp1996
F202.20318639810478
aF179.9122253762849
aF0.0
aF0.0
aF0.0
aF0.0
aF0.0
aa(lp1997
F201.12540076690982
aF182.71074944704475
aF0.0
aF0.0
aF0.0
aF0.0
aF0.0
aa(lp1998
F200.04761513571492
aF185.50917355623628
aF0.0
aF0.0
aF0.0
aF0.0
aF0.0
aa(lp1999
F199.2876073306718
aF187.482614840882
aF0.0
aF0.0
aF0.0
aF0.0
aF0.0
aa(lp2000
F198.1317517145053
aF190.24975097914373
aF0.0
aF0.0
aF0.0
aF0.0
aF0.0
aa(lp2001
F196.97599605990735
aF193.01688711740547
aF0.0
aF0.0
aF0.0
aF0.0
aF0.0
aa(lp2002
F196.23708014581035
aF194.78590699453935
aF0.0
aF0.0
aF0.0
aF0.0
aF0.0
aa(lp2003
F195.19398117887295
aF197.5974260691997
aF0.0
aF0.0
aF0.0
aF0.0
aF0.0
aa(lp2004
F194.15078225036712
aF200.40894514386014
aF0.0
aF0.0
aF0.0
aF0.0
aF0.0
aa(lp2005
F193.40097052530746
aF202.429868173527
aF0.0
aF0.0
aF0.0
aF0.0
aF0.0
aa(lp2006
F192.575188008214
aF205.31285976964023
aF0.0
aF0.0
aF0.0
aF0.0
aF0.0
aa(lp2007
F191.74940549112057
aF208.1956514426166
aF0.0
aF0.0
aF0.0
aF0.0
aF0.0
aa(lp2008
F190.95351148299835
aF210.97468300752567
aF0.0
aF0.0
aF0.0
aF0.0
aF0.0
aa(lp2009
F190.37643334824708
aF213.9174516215813
aF0.0
aF0.0
aF0.0
aF0.0
aF0.0
aa(lp2010
F189.79945517506428
aF216.86022023563686
aF0.0
aF0.0
aF0.0
aF0.0
aF0.0
aa(lp2011
F189.22247700188143
aF219.80308881126103
aF0.0
aF0.0
aF0.0
aF0.0
aF0.0
aa(lp2012
F189.0558410672495
aF220.65316198949148
aF0.0
aF0.0
aF0.0
aF0.0
aF0.0
aa(lp2013
F188.64000094243306
aF223.6230201886013
aF0.0
aF0.0
aF0.0
aF0.0
aF0.0
aa(lp2014
F188.22416081761656
aF226.59287838771107
aF0.0
aF0.0
aF0.0
aF0.0
aF0.0
aa(lp2015
F187.80822073123164
aF229.56273658682082
aF0.0
aF0.0
aF0.0
aF0.0
aF0.0
aa(lp2016
F187.58310727904734
aF231.17051845401986
aF0.0
aF0.0
aF0.0
aF0.0
aF0.0
aa(lp2017
F187.3778861789877
aF234.16236819819198
aF0.0
aF0.0
aF0.0
aF0.0
aF0.0
aa(lp2018
F187.17256511735957
aF237.15411798079577
aF0.0
aF0.0
aF0.0
aF0.0
aF0.0
aa(lp2019
F183.84374492589018
aF238.99690949545706
aF0.0
aF0.0
aF0.0
aF0.0
aF0.0
aa(lp2020
F181.2495423010738
aF240.50143106243115
aF0.0
aF0.0
aF0.0
aF0.0
aF0.0
aa(lp2021
F179.43014179343334
aF246.4354496512482
aF0.0
aF0.0
aF0.0
aF0.0
aF0.0
aa(lp2022
F178.75979951530383
aF248.76215511885096
aF0.0
aF0.0
aF0.0
aF0.0
aF0.0
aa(lp2023
F177.9296186891978
aF251.64384721457412
aF0.0
aF0.0
aF0.0
aF0.0
aF0.0
aa(lp2024
F177.09943786309196
aF254.52543934872887
aF0.0
aF0.0
aF0.0
aF0.0
aF0.0
aa(lp2025
F175.43457794029916
aF257.4935982011748
aF0.0
aF0.0
aF0.0
aF0.0
aF0.0
aa(lp2026
F173.88517362908408
aF260.06111108721086
aF0.0
aF0.0
aF0.0
aF0.0
aF0.0
aa(lp2027
F172.4057424157948
aF262.5126685538271
aF0.0
aF0.0
aF0.0
aF0.0
aF0.0
aa(lp2028
F170.8451424089115
aF265.07348401477606
aF0.0
aF0.0
aF0.0
aF0.0
aF0.0
aa(lp2029
F169.28464236359673
aF267.63439943729355
aF0.0
aF0.0
aF0.0
aF0.0
aF0.0
aa(lp2030
F167.72414231828196
aF270.1952148982425
aF0.0
aF0.0
aF0.0
aF0.0
aF0.0
aa(lp2031
F167.2022429693236
aF271.0516856168548
aF0.0
aF0.0
aF0.0
aF0.0
aF0.0
aa(lp2032
F165.5686710174606
aF273.5665187563097
aF0.0
aF0.0
aF0.0
aF0.0
aF0.0
aa(lp2033
F163.93509906559746
aF276.081451857333
aF0.0
aF0.0
aF0.0
aF0.0
aF0.0
aa(lp2034
F163.65380721193554
aF276.51448537192545
aF0.0
aF0.0
aF0.0
aF0.0
aF0.0
aa(lp2035
F162.27433756711173
aF279.17716167114077
aF0.0
aF0.0
aF0.0
aF0.0
aF0.0
aa(lp2036
F160.89486792228797
aF281.8399379319245
aF0.0
aF0.0
aF0.0
aF0.0
aF0.0
aa(lp2037
F160.30239570599304
aF282.9832983520329
aF0.0
aF0.0
aF0.0
aF0.0
aF0.0
aa(lp2038
F159.1978203744493
aF285.7713264581039
aF0.0
aF0.0
aF0.0
aF0.0
aF0.0
aa(lp2039
F158.09314508133718
aF288.5592546026064
aF0.0
aF0.0
aF0.0
aF0.0
aF0.0
aa(lp2040
F156.9885697497935
aF291.3472827086775
aF0.0
aF0.0
aF0.0
aF0.0
aF0.0
aa(lp2041
F156.7338676733434
aF291.99003559391065
aF0.0
aF0.0
aF0.0
aF0.0
aF0.0
aa(lp2042
F155.7369509510371
aF294.8183482120732
aF0.0
aF0.0
aF0.0
aF0.0
aF0.0
aa(lp2043
F154.73993426716225
aF297.6465608686674
aF0.0
aF0.0
aF0.0
aF0.0
aF0.0
aa(lp2044
F153.7429175832874
aF300.47487348683006
aF0.0
aF0.0
aF0.0
aF0.0
aF0.0
aa(lp2045
F152.86155643412718
aF302.9751122372889
aF0.0
aF0.0
aF0.0
aF0.0
aF0.0
aa(lp2046
F151.85784232516517
aF305.8010257778083
aF0.0
aF0.0
aF0.0
aF0.0
aF0.0
aa(lp2047
F150.8542281777717
aF308.6269393183278
aF0.0
aF0.0
aF0.0
aF0.0
aF0.0
aa(lp2048
F149.8506140303781
aF311.4528528588472
aF0.0
aF0.0
aF0.0
aF0.0
aF0.0
aa(lp2049
F148.92057159737516
aF314.0715460679378
aF0.0
aF0.0
aF0.0
aF0.0
aF0.0
aa(lp2050
F147.66605391313328
aF316.79539884705395
aF0.0
aF0.0
aF0.0
aF0.0
aF0.0
aa(lp2051
F146.4295293112151
aF319.6251109271751
aF0.0
aF0.0
aF0.0
aF0.0
aF0.0
aa(lp2052
F145.6822166253671
aF321.3380523643998
aF0.0
aF0.0
aF0.0
aF0.0
aF0.0
aa(lp2053
F144.40260858744037
aF324.0502096400055
aF0.0
aF0.0
aF0.0
aF0.0
aF0.0
aa(lp2054
F143.12310051108207
aF326.7622669540428
aF0.0
aF0.0
aF0.0
aF0.0
aF0.0
aa(lp2055
F142.5725121919741
aF327.9293182658774
aF0.0
aF0.0
aF0.0
aF0.0
aF0.0
aa(lp2056
F141.3384866292676
aF331.3735940689244
aF0.0
aF0.0
aF0.0
aF0.0
aF0.0
aa(lp2057
F140.3270754795338
aF334.1967086855268
aF0.0
aF0.0
aF0.0
aF0.0
aF0.0
aa(lp2058
F139.23819411423918
aF337.4497580080993
aF0.0
aF0.0
aF0.0
aF0.0
aF0.0
aa(lp2059
F137.43998545911344
aF343.05430326725406
aF0.0
aF0.0
aF0.0
aF0.0
aF0.0
aa(lp2060
F136.74485271200442
aF345.9714817197825
aF0.0
aF0.0
aF0.0
aF0.0
aF0.0
aa(lp2061
F136.73515643986326
aF347.8217703520788
aF0.0
aF0.0
aF0.0
aF0.0
aF0.0
aa(lp2062
F136.72765932222833
aF349.22912927450443
aF0.0
aF0.0
aF0.0
aF0.0
aF0.0
aa(lp2063
F137.85442612197136
aF354.2464003189244
aF0.0
aF0.0
aF0.0
aF0.0
aF0.0
aa(lp2064
F138.06334580006427
aF354.76560070553415
aF0.0
aF0.0
aF0.0
aF0.0
aF0.0
aa(lp2065
F137.90800552266887
aF356.3030096285334
aF0.0
aF0.0
aF0.0
aF0.0
aF0.0
aa(lp2066
F138.1785015269365
aF358.04064157316907
aF0.0
aF0.0
aF0.0
aF0.0
aF0.0
aa(lp2067
F138.27356497854717
aF358.65170664119864
aF0.0
aF0.0
aF0.0
aF0.0
aF0.0
aa(lp2068
F139.40063166299558
aF361.56178782236606
aF0.0
aF0.0
aF0.0
aF0.0
aF0.0
aa(lp2069
F139.9005394668915
aF362.2842100776661
aF0.0
aF0.0
aF0.0
aF0.0
aF0.0
aa(lp2070
F140.91085103937226
aF363.63619029116194
aF0.0
aF0.0
aF0.0
aF0.0
aF0.0
aa(lp2071
F142.44376169179054
aF365.53166155240456
aF0.0
aF0.0
aF0.0
aF0.0
aF0.0
aa(lp2072
F143.67029013686215
aF366.84655602399965
aF0.0
aF0.0
aF0.0
aF0.0
aF0.0
aa(lp2073
F145.20649952103983
aF368.0451951914693
aF0.0
aF0.0
aF0.0
aF0.0
aF0.0
aa(lp2074
F146.99101344128576
aF367.8732612937087
aF0.0
aF0.0
aF0.0
aF0.0
aF0.0
aa(lp2075
F151.10943006206406
aF369.49433804951354
aF0.0
aF0.0
aF0.0
aF0.0
aF0.0
aa(lp2076
F153.42793868105264
aF369.63118543674284
aF0.0
aF0.0
aF0.0
aF0.0
aF0.0
aa(lp2077
F155.36099549203834
aF369.4701473499449
aF0.0
aF0.0
aF0.0
aF0.0
aF0.0
aa(lp2078
F157.2037870066997
aF369.0352145655516
aF0.0
aF0.0
aF0.0
aF0.0
aF0.0
aa(lp2079
F159.27968889902257
aF368.29769811341316
aF0.0
aF0.0
aF0.0
aF0.0
aF0.0
aa(lp2080
F161.34059655607564
aF367.28278830878304
aF0.0
aF0.0
aF0.0
aF0.0
aF0.0
aa(lp2081
F163.17459145271198
aF366.09014683542125
aF0.0
aF0.0
aF0.0
aF0.0
aF0.0
aa(lp2082
F165.2551915387528
aF365.05984294924747
aF0.0
aF0.0
aF0.0
aF0.0
aF0.0
aaa.