(lp0
(lp1
(lp2
F377.1392890166212
aF527.392425464031
aF0.0
aF0.0
aF0.0
aF0.0
aF0.0
aa(lp3
F374.5026608588507
aF528.8210447016569
aF0.0
aF0.0
aF0.0
aF0.0
aF0.0
aa(lp4
F371.8660327010801
aF530.2497638986472
aF0.0
aF0.0
aF0.0
aF0.0
aF0.0
aa(lp5
F370.84124929608845
aF530.8050381685193
aF0.0
aF0.0
aF0.0
aF0.0
aF0.0
aa(lp6
F368.0976646182886
aF532.0154461134123
aF0.0
aF0.0
aF0.0
aF0.0
aF0.0
aa(lp7
F365.35397998112416
aF533.2258540583053
aF0.0
aF0.0
aF0.0
aF0.0
aF0.0
aa(lp8
F364.30840502831376
aF533.6870665661702
aF0.0
aF0.0
aF0.0
aF0.0
aF0.0
aa(lp9
F361.47635631291945
aF534.6731656970953
aF0.0
aF0.0
aF0.0
aF0.0
aF0.0
aa(lp10
F358.64430759752514
aF535.6591648686556
aF0.0
aF0.0
aF0.0
aF0.0
aF0.0
aa(lp11
F357.5736428442219
aF536.0319133389262
aF0.0
aF0.0
aF0.0
aF0.0
aF0.0
aa(lp12
F354.67202241112625
aF536.7889056063864
aF0.0
aF0.0
aF0.0
aF0.0
aF0.0
aa(lp13
F351.77030201866614
aF537.5458978738463
aF0.0
aF0.0
aF0.0
aF0.0
aF0.0
aa(lp14
F350.6669505531669
aF537.8337808436452
aF0.0
aF0.0
aF0.0
aF0.0
aF0.0
aa(lp15
F347.71455076289845
aF538.3596670603501
aF0.0
aF0.0
aF0.0
aF0.0
aF0.0
aa(lp16
F344.7622509319946
aF538.8855532770554
aF0.0
aF0.0
aF0.0
aF0.0
aF0.0
aa(lp17
F343.6213147454383
aF539.088770665111
aF0.0
aF0.0
aF0.0
aF0.0
aF0.0
aa(lp18
F340.6372278366191
aF539.3847503434354
aF0.0
aF0.0
aF0.0
aF0.0
aF0.0
aa(lp19
F337.6530409684354
aF539.6807300217597
aF0.0
aF0.0
aF0.0
aF0.0
aF0.0
aa(lp20
F336.46782278339975
aF539.7982822344273
aF0.0
aF0.0
aF0.0
aF0.0
aF0.0
aa(lp21
F333.46974156354867
aF539.8663545616611
aF0.0
aF0.0
aF0.0
aF0.0
aF0.0
aa(lp22
F330.47176030306207
aF539.9344268888947
aF0.0
aF0.0
aF0.0
aF0.0
aF0.0
aa(lp23
F329.2378619075084
aF539.9625154703228
aF0.0
aF0.0
aF0.0
aF0.0
aF0.0
aa(lp24
F326.2430793466863
aF539.8081782115141
aF0.0
aF0.0
aF0.0
aF0.0
aF0.0
aa(lp25
F323.24829678586406
aF539.6538409527054
aF0.0
aF0.0
aF0.0
aF0.0
aF0.0
aa(lp26
F321.9625194801279
aF539.5875678940331
aF0.0
aF0.0
aF0.0
aF0.0
aF0.0
aa(lp27
F318.98682915792784
aF539.2159189767722
aF0.0
aF0.0
aF0.0
aF0.0
aF0.0
aa(lp28
F316.0111388357277
aF538.8442700595112
aF0.0
aF0.0
aF0.0
aF0.0
aF0.0
aa(lp29
F314.6743822540898
aF538.6773379207739
aF0.0
aF0.0
aF0.0
aF0.0
aF0.0
aa(lp30
F311.7324781970952
aF538.0962741348574
aF0.0
aF0.0
aF0.0
aF0.0
aF0.0
aa(lp31
F308.79047418073617
aF537.5152103489409
aF0.0
aF0.0
aF0.0
aF0.0
aF0.0
aa(lp32
F307.40393783557045
aF537.241321690174
aF0.0
aF0.0
aF0.0
aF0.0
aF0.0
aa(lp33
F304.5088147611682
aF536.4594395409501
aF0.0
aF0.0
aF0.0
aF0.0
aF0.0
aa(lp34
F301.6137916461305
aF535.677557391726
aF0.0
aF0.0
aF0.0
aF0.0
aF0.0
aa(lp35
F300.1789749279048
aF535.290114894872
aF0.0
aF0.0
aF0.0
aF0.0
aF0.0
aa(lp36
F297.34292783792995
aF534.3155110908663
aF0.0
aF0.0
aF0.0
aF0.0
aF0.0
aa(lp37
F294.5069807073196
aF533.3409072868602
aF0.0
aF0.0
aF0.0
aF0.0
aF0.0
aa(lp38
F293.0311806496434
aF532.8338134306837
aF0.0
aF0.0
aF0.0
aF0.0
aF0.0
aa(lp39
F290.26470527737
aF531.6764839083473
aF0.0
aF0.0
aF0.0
aF0.0
aF0.0
aa(lp40
F287.4982299050965
aF530.5192543453754
aF0.0
aF0.0
aF0.0
aF0.0
aF0.0
aa(lp41
F285.98834370412123
aF529.8876111210151
aF0.0
aF0.0
aF0.0
aF0.0
aF0.0
aa(lp42
F283.30083622981334
aF528.5571519793414
aF0.0
aF0.0
aF0.0
aF0.0
aF0.0
aa(lp43
F280.61332875550545
aF527.2266928376678
aF0.0
aF0.0
aF0.0
aF0.0
aF0.0
aa(lp44
F279.07855267276636
aF526.4669017080012
aF0.0
aF0.0
aF0.0
aF0.0
aF0.0
aa(lp45
F276.47850964240774
aF524.972809086619
aF0.0
aF0.0
aF0.0
aF0.0
aF0.0
aa(lp46
F273.8783666526845
aF523.478716465237
aF0.0
aF0.0
aF0.0
aF0.0
aF0.0
aa(lp47
F272.3285966652685
aF522.5880785274223
aF0.0
aF0.0
aF0.0
aF0.0
aF0.0
aa(lp48
F269.823215153104
aF520.940148444054
aF0.0
aF0.0
aF0.0
aF0.0
aF0.0
aa(lp49
F267.3178336409396
aF519.2922183606858
aF0.0
aF0.0
aF0.0
aF0.0
aF0.0
aa(lp50
F265.7637654008494
aF518.269933939807
aF0.0
aF0.0
aF0.0
aF0.0
aF0.0
aa(lp51
F263.3600425623951
aF516.4768628591653
aF0.0
aF0.0
aF0.0
aF0.0
aF0.0
aa(lp52
F260.9564196833054
aF514.6837917785235
aF0.0
aF0.0
aF0.0
aF0.0
aF0.0
aa(lp53
F259.4103481923762
aF513.5305605901322
aF0.0
aF0.0
aF0.0
aF0.0
aF0.0
aa(lp54
F257.1138817520449
aF511.6021445299391
aF0.0
aF0.0
aF0.0
aF0.0
aF0.0
aa(lp55
F254.81731535234894
aF509.6737284697462
aF0.0
aF0.0
aF0.0
aF0.0
aF0.0
aa(lp56
F253.29073593749996
aF508.39194953859055
aF0.0
aF0.0
aF0.0
aF0.0
aF0.0
aa(lp57
F251.1070236603398
aF506.33678500419467
aF0.0
aF0.0
aF0.0
aF0.0
aF0.0
aa(lp58
F248.92321142381502
aF504.2816204697986
aF0.0
aF0.0
aF0.0
aF0.0
aF0.0
aa(lp59
F247.4296185992555
aF502.8759918860108
aF0.0
aF0.0
aF0.0
aF0.0
aF0.0
aa(lp60
F245.36335857539848
aF500.7025754233955
aF0.0
aF0.0
aF0.0
aF0.0
aF0.0
aa(lp61
F243.29719851090607
aF498.5292589201447
aF0.0
aF0.0
aF0.0
aF0.0
aF0.0
aa(lp62
F241.84858740037748
aF497.00557832686656
aF0.0
aF0.0
aF0.0
aF0.0
aF0.0
aa(lp63
F239.9041778418624
aF494.7226064007445
aF0.0
aF0.0
aF0.0
aF0.0
aF0.0
aa(lp64
F237.95976828334733
aF492.43953451525795
aF0.0
aF0.0
aF0.0
aF0.0
aF0.0
aa(lp65
F236.56753425440434
aF490.8048990273699
aF0.0
aF0.0
aF0.0
aF0.0
aF0.0
aa(lp66
F234.74927341390514
aF488.42026842753774
aF0.0
aF0.0
aF0.0
aF0.0
aF0.0
aa(lp67
F232.93101257340606
aF486.03553786834095
aF0.0
aF0.0
aF0.0
aF0.0
aF0.0
aa(lp68
F231.60695083106123
aF484.2991437473783
aF0.0
aF0.0
aF0.0
aF0.0
aF0.0
aa(lp69
F229.91883708315856
aF481.82065130426804
aF0.0
aF0.0
aF0.0
aF0.0
aF0.0
aa(lp70
F228.23072333525585
aF479.3421588611577
aF0.0
aF0.0
aF0.0
aF0.0
aF0.0
aa(lp71
F226.98522965341863
aF477.5134022873846
aF0.0
aF0.0
aF0.0
aF0.0
aF0.0
aa(lp72
F225.4309614945994
aF474.94884483142823
aF0.0
aF0.0
aF0.0
aF0.0
aF0.0
aa(lp73
F223.87669333578015
aF472.3842873754719
aF0.0
aF0.0
aF0.0
aF0.0
aF0.0
aa(lp74
F222.71966369153733
aF470.47516347262996
aF0.0
aF0.0
aF0.0
aF0.0
aF0.0
aa(lp75
F221.302639740195
aF467.8322378748951
aF0.0
aF0.0
aF0.0
aF0.0
aF0.0
aa(lp76
F219.8857157482173
aF465.18941223652473
aF0.0
aF0.0
aF0.0
aF0.0
aF0.0
aa(lp77
F218.82574664691697
aF463.21251588454277
aF0.0
aF0.0
aF0.0
aF0.0
aF0.0
aa(lp78
F217.55026515572564
aF460.4985191786388
aF0.0
aF0.0
aF0.0
aF0.0
aF0.0
aa(lp79
F216.27478366453437
aF457.78452247273486
aF0.0
aF0.0
aF0.0
aF0.0
aF0.0
aa(lp80
F215.3195719772441
aF455.75204871408346
aF0.0
aF0.0
aF0.0
aF0.0
aF0.0
aa(lp81
F214.18883164586828
aF452.9745778117135
aF0.0
aF0.0
aF0.0
aF0.0
aF0.0
aa(lp82
F213.05809131449246
aF450.197206868708
aF0.0
aF0.0
aF0.0
aF0.0
aF0.0
aa(lp83
F212.21403444054113
aF448.12374977060614
aF0.0
aF0.0
aF0.0
aF0.0
aF0.0
aa(lp84
F211.23193368419675
aF445.2904015834731
aF0.0
aF0.0
aF0.0
aF0.0
aF0.0
aa(lp85
F210.24973296848782
aF442.4569534369757
aF0.0
aF0.0
aF0.0
aF0.0
aF0.0
aa(lp86
F209.5217289167366
aF440.35670722918417
aF0.0
aF0.0
aF0.0
aF0.0
aF0.0
aa(lp87
F208.69196623191067
aF437.4749787096266
aF0.0
aF0.0
aF0.0
aF0.0
aF0.0
aa(lp88
F207.86220354708473
aF434.5933501494337
aF0.0
aF0.0
aF0.0
aF0.0
aF0.0
aa(lp89
F207.2537508952915
aF432.480609021078
aF0.0
aF0.0
aF0.0
aF0.0
aF0.0
aa(lp90
F206.57982485974202
aF429.5585968776216
aF0.0
aF0.0
aF0.0
aF0.0
aF0.0
aa(lp91
F205.90589882419255
aF426.63648477480075
aF0.0
aF0.0
aF0.0
aF0.0
aF0.0
aa(lp92
F205.41899675964765
aF424.5253429962772
aF0.0
aF0.0
aF0.0
aF0.0
aF0.0
aa(lp93
F204.90460586986154
aF421.571043978083
aF0.0
aF0.0
aF0.0
aF0.0
aF0.0
aa(lp94
F204.39011502071094
aF418.61674495988876
aF0.0
aF0.0
aF0.0
aF0.0
aF0.0
aa(lp95
F204.02556321833055
aF416.5230960701552
aF0.0
aF0.0
aF0.0
aF0.0
aF0.0
aa(lp96
F203.6750057269819
aF413.5449067638423
aF0.0
aF0.0
aF0.0
aF0.0
aF0.0
aa(lp97
F203.32444823563333
aF410.5667174575293
aF0.0
aF0.0
aF0.0
aF0.0
aF0.0
aa(lp98
F203.08164693923027
aF408.5038560520658
aF0.0
aF0.0
aF0.0
aF0.0
aF0.0
aa(lp99
F202.89862134280622
aF405.51067284107586
aF0.0
aF0.0
aF0.0
aF0.0
aF0.0
aa(lp100
F202.7156957057466
aF402.5173896707215
aF0.0
aF0.0
aF0.0
aF0.0
aF0.0
aa(lp101
F202.59234584993703
aF400.5002096948406
aF0.0
aF0.0
aF0.0
aF0.0
aF0.0
aa(lp102
F202.58015080746645
aF397.5014287594379
aF0.0
aF0.0
aF0.0
aF0.0
aF0.0
aa(lp103
F202.56795576499576
aF394.50274778339974
aF0.0
aF0.0
aF0.0
aF0.0
aF0.0
aa(lp104
F202.5599590158347
aF392.54284452338504
aF0.0
aF0.0
aF0.0
aF0.0
aF0.0
aa(lp105
F202.7227928206271
aF389.54846180002096
aF0.0
aF0.0
aF0.0
aF0.0
aF0.0
aa(lp106
F202.8856266254195
aF386.5541790360214
aF0.0
aF0.0
aF0.0
aF0.0
aF0.0
aa(lp107
F202.98848481150378
aF384.66264798133386
aF0.0
aF0.0
aF0.0
aF0.0
aF0.0
aa(lp108
F203.32974608195263
aF381.6833591220113
aF0.0
aF0.0
aF0.0
aF0.0
aF0.0
aa(lp109
F203.67100735240138
aF378.7040702626887
aF0.0
aF0.0
aF0.0
aF0.0
aF0.0
aa(lp110
F203.87852299313124
aF376.89290653707
aF0.0
aF0.0
aF0.0
aF0.0
aF0.0
aa(lp111
F204.40091063207842
aF373.940006949979
aF0.0
aF0.0
aF0.0
aF0.0
aF0.0
aa(lp112
F204.9233982303901
aF370.98710736288797
aF0.0
aF0.0
aF0.0
aF0.0
aF0.0
aa(lp113
F205.22827429215602
aF369.2640078374056
aF0.0
aF0.0
aF0.0
aF0.0
aF0.0
aa(lp114
F205.9344872024434
aF366.3495926056523
aF0.0
aF0.0
aF0.0
aF0.0
aF0.0
aa(lp115
F206.6408000720952
aF363.4351773738989
aF0.0
aF0.0
aF0.0
aF0.0
aF0.0
aa(lp116
F207.03493984637169
aF361.808738553901
aF0.0
aF0.0
aF0.0
aF0.0
aF0.0
aa(lp117
F207.9273770527475
aF358.94580239487203
aF0.0
aF0.0
aF0.0
aF0.0
aF0.0
aa(lp118
F208.81991421848784
aF356.0829661952076
aF0.0
aF0.0
aF0.0
aF0.0
aF0.0
aa(lp119
F209.2950210780201
aF354.5588857644715
aF0.0
aF0.0
aF0.0
aF0.0
aF0.0
aa(lp120
F210.37498205222312
aF351.7613230298343
aF0.0
aF0.0
aF0.0
aF0.0
aF0.0
aa(lp121
F211.4548430670617
aF348.9637602951972
aF0.0
aF0.0
aF0.0
aF0.0
aF0.0
aa(lp122
F212.00262038459522
aF347.5446371972
aF0.0
aF0.0
aF0.0
aF0.0
aF0.0
aa(lp123
F213.2699052078964
aF344.8267420760801
aF0.0
aF0.0
aF0.0
aF0.0
aF0.0
aa(lp124
F214.53719003119755
aF342.1089469143247
aF0.0
aF0.0
aF0.0
aF0.0
aF0.0
aa(lp125
F215.14934117947774
aF340.7958807020763
aF0.0
aF0.0
aF0.0
aF0.0
aF0.0
aa(lp126
F216.60384989251259
aF338.17344677406663
aF0.0
aF0.0
aF0.0
aF0.0
aF0.0
aa(lp127
F218.05835860554737
aF335.55101284605706
aF0.0
aF0.0
aF0.0
aF0.0
aF0.0
aa(lp128
F218.72668691668412
aF334.3460027068477
aF0.0
aF0.0
aF0.0
aF0.0
aF0.0
aa(lp129
F220.36482098233006
aF331.83422379535443
aF0.0
aF0.0
aF0.0
aF0.0
aF0.0
aa(lp130
F222.00295504797606
aF329.3224448838611
aF0.0
aF0.0
aF0.0
aF0.0
aF0.0
aa(lp131
F222.72136300073407
aF328.2209926462877
aF0.0
aF0.0
aF0.0
aF0.0
aF0.0
aa(lp132
F224.5397238005977
aF325.8363620464555
aF0.0
aF0.0
aF0.0
aF0.0
aF0.0
aa(lp133
F226.3579846410969
aF323.4517314466233
aF0.0
aF0.0
aF0.0
aF0.0
aF0.0
aa(lp134
F227.12137430788584
aF322.4506384110214
aF0.0
aF0.0
aF0.0
aF0.0
aF0.0
aa(lp135
F229.11396428009647
aF320.2095494586305
aF0.0
aF0.0
aF0.0
aF0.0
aF0.0
aa(lp136
F231.10655425230703
aF317.968560465604
aF0.0
aF0.0
aF0.0
aF0.0
aF0.0
aa(lp137
F231.91072733981753
aF317.06402817612206
aF0.0
aF0.0
aF0.0
aF0.0
aF0.0
aa(lp138
F234.06934981648487
aF314.9824743694945
aF0.0
aF0.0
aF0.0
aF0.0
aF0.0
aa(lp139
F236.22797229315222
aF312.90092056286704
aF0.0
aF0.0
aF0.0
aF0.0
aF0.0
aa(lp140
F237.0728288420197
aF312.0861517827181
aF0.0
aF0.0
aF0.0
aF0.0
aF0.0
aa(lp141
F239.38768780542154
aF310.17972678271815
aF0.0
aF0.0
aF0.0
aF0.0
aF0.0
aa(lp142
F241.70244680945893
aF308.27330178271814
aF0.0
aF0.0
aF0.0
aF0.0
aF0.0
aa(lp143
F242.5878868603188
aF307.5439982592282
aF0.0
aF0.0
aF0.0
aF0.0
aF0.0
aa(lp144
F245.04638743052635
aF305.8268962956166
aF0.0
aF0.0
aF0.0
aF0.0
aF0.0
aa(lp145
F247.50488800073407
aF304.10979433200504
aF0.0
aF0.0
aF0.0
aF0.0
aF0.0
aa(lp146
F248.43570960308307
aF303.4596586252097
aF0.0
aF0.0
aF0.0
aF0.0
aF0.0
aa(lp147
F251.02415734715817
aF301.9453742121959
aF0.0
aF0.0
aF0.0
aF0.0
aF0.0
aa(lp148
F253.61250513186872
aF300.43118975854657
aF0.0
aF0.0
aF0.0
aF0.0
aF0.0
aa(lp149
F254.5939061726615
aF299.857123128146
aF0.0
aF0.0
aF0.0
aF0.0
aF0.0
aa(lp150
F257.2959077548238
aF298.5564518770973
aF0.0
aF0.0
aF0.0
aF0.0
aF0.0
aa(lp151
F259.9980092963507
aF297.25578062604865
aF0.0
aF0.0
aF0.0
aF0.0
aF0.0
aa(lp152
F261.03608729682253
aF296.75608376284606
aF0.0
aF0.0
aF0.0
aF0.0
aF0.0
aa(lp153
F263.8346496251048
aF295.67892165084936
aF0.0
aF0.0
aF0.0
aF0.0
aF0.0
aa(lp154
F266.63331191275165
aF294.6016595794882
aF0.0
aF0.0
aF0.0
aF0.0
aF0.0
aa(lp155
F267.73756301253144
aF294.17663236157716
aF0.0
aF0.0
aF0.0
aF0.0
aF0.0
aa(lp156
F270.61399368576974
aF293.32877703177434
aF0.0
aF0.0
aF0.0
aF0.0
aF0.0
aa(lp157
F273.490424359008
aF292.48092170197145
aF0.0
aF0.0
aF0.0
aF0.0
aF0.0
aa(lp158
F274.6688453072567
aF292.1335629102873
aF0.0
aF0.0
aF0.0
aF0.0
aF0.0
aa(lp159
F277.60425200555784
aF291.52031220899744
aF0.0
aF0.0
aF0.0
aF0.0
aF0.0
aa(lp160
F280.539658703859
aF290.90696154834313
aF0.0
aF0.0
aF0.0
aF0.0
aF0.0
aa(lp161
F281.8011458840184
aF290.6433687041212
aF0.0
aF0.0
aF0.0
aF0.0
aF0.0
aa(lp162
F284.77603653130245
aF290.265622265625
aF0.0
aF0.0
aF0.0
aF0.0
aF0.0
aa(lp163
F287.7510271379509
aF289.8877758677642
aF0.0
aF0.0
aF0.0
aF0.0
aF0.0
aa(lp164
F289.1032774210885
aF289.7160456795301
aF0.0
aF0.0
aF0.0
aF0.0
aF0.0
aa(lp165
F292.0986597380977
aF289.5737035444631
aF0.0
aF0.0
aF0.0
aF0.0
aF0.0
aa(lp166
F295.09414201447146
aF289.43146136876044
aF0.0
aF0.0
aF0.0
aF0.0
aF0.0
aa(lp167
F296.5421533688129
aF289.3626893259752
aF0.0
aF0.0
aF0.0
aF0.0
aF0.0
aa(lp168
F299.53963483247685
aF289.4525527946728
aF0.0
aF0.0
aF0.0
aF0.0
aF0.0
aa(lp169
F302.53701633677645
aF289.54241626337034
aF0.0
aF0.0
aF0.0
aF0.0
aF0.0
aa(lp170
F304.08478713690226
aF289.58879740850455
aF0.0
aF0.0
aF0.0
aF0.0
aF0.0
aa(lp171
F307.0666749397022
aF289.90656822829277
aF0.0
aF0.0
aF0.0
aF0.0
aF0.0
aa(lp172
F310.0485627425021
aF290.22433904808094
aF0.0
aF0.0
aF0.0
aF0.0
aF0.0
aa(lp173
F311.693693963664
aF290.3996677734375
aF0.0
aF0.0
aF0.0
aF0.0
aF0.0
aa(lp174
F314.64359476981963
aF290.93874862625836
aF0.0
aF0.0
aF0.0
aF0.0
aF0.0
aa(lp175
F317.5935955353398
aF291.4777295197147
aF0.0
aF0.0
aF0.0
aF0.0
aF0.0
aa(lp176
F319.3349876245281
aF291.795900176961
aF0.0
aF0.0
aF0.0
aF0.0
aF0.0
aa(lp177
F322.2379075293624
aF292.54809439492453
aF0.0
aF0.0
aF0.0
aF0.0
aF0.0
aa(lp178
F325.1408274341967
aF293.30028861288804
aF0.0
aF0.0
aF0.0
aF0.0
aF0.0
aa(lp179
F326.9722829108116
aF293.7747957162332
aF0.0
aF0.0
aF0.0
aF0.0
aF0.0
aa(lp180
F329.81422760329275
aF294.73190663144925
aF0.0
aF0.0
aF0.0
aF0.0
aF0.0
aa(lp181
F332.65617229577384
aF295.6889175873007
aF0.0
aF0.0
aF0.0
aF0.0
aF0.0
aa(lp182
F334.56639575162535
aF296.3321560979446
aF0.0
aF0.0
aF0.0
aF0.0
aF0.0
aa(lp183
F337.3350702299182
aF297.4842877333263
aF0.0
aF0.0
aF0.0
aF0.0
aF0.0
aa(lp184
F340.10374470821097
aF298.6363194093435
aF0.0
aF0.0
aF0.0
aF0.0
aF0.0
aa(lp185
F342.0804411414639
aF299.4588850199245
aF0.0
aF0.0
aF0.0
aF0.0
aF0.0
aa(lp186
F344.7645499973783
aF300.79614139838503
aF0.0
aF0.0
aF0.0
aF0.0
aF0.0
aa(lp187
F346.71055890572563
aF301.76564727480076
aF0.0
aF0.0
aF0.0
aF0.0
aF0.0
aa(lp188
F349.3946677616401
aF303.1029036532613
aF0.0
aF0.0
aF0.0
aF0.0
aF0.0
aa(lp189
F352.0661817376258
aF304.65587234034183
aF0.0
aF0.0
aF0.0
aF0.0
aF0.0
aa(lp190
F354.655828994075
aF306.1680576067009
aF0.0
aF0.0
aF0.0
aF0.0
aF0.0
aa(lp191
F356.71839052144503
aF307.37246798972313
aF0.0
aF0.0
aF0.0
aF0.0
aF0.0
aa(lp192
F359.2045798356229
aF309.04908641070676
aF0.0
aF0.0
aF0.0
aF0.0
aF0.0
aa(lp193
F361.69096906852974
aF310.72570483169045
aF0.0
aF0.0
aF0.0
aF0.0
aF0.0
aa(lp194
F363.76712506947354
aF312.1258356504299
aF0.0
aF0.0
aF0.0
aF0.0
aF0.0
aa(lp195
F366.14215957031246
aF313.9566913708578
aF0.0
aF0.0
aF0.0
aF0.0
aF0.0
aa(lp196
F368.51719407115144
aF315.78744713192117
aF0.0
aF0.0
aF0.0
aF0.0
aF0.0
aa(lp197
F370.5883521038695
aF317.384098061294
aF0.0
aF0.0
aF0.0
aF0.0
aF0.0
aa(lp198
F372.8446348796665
aF319.3593950634438
aF0.0
aF0.0
aF0.0
aF0.0
aF0.0
aa(lp199
F375.101017614828
aF321.334592106229
aF0.0
aF0.0
aF0.0
aF0.0
aF0.0
aa(lp200
F377.1445868629404
aF323.1237647716548
aF0.0
aF0.0
aF0.0
aF0.0
aF0.0
aa(lp201
F379.2763202705537
aF325.232907362888
aF0.0
aF0.0
aF0.0
aF0.0
aF0.0
aa(lp202
F381.40795371880233
aF327.3420499541212
aF0.0
aF0.0
aF0.0
aF0.0
aF0.0
aa(lp203
F383.4018431627517
aF329.31484797215813
aF0.0
aF0.0
aF0.0
aF0.0
aF0.0
aa(lp204
F385.4028297215814
aF331.54843997221053
aF0.0
aF0.0
aF0.0
aF0.0
aF0.0
aa(lp205
F387.40371632104643
aF333.7821319316275
aF0.0
aF0.0
aF0.0
aF0.0
aF0.0
aa(lp206
F389.32813400665896
aF335.93035863438547
aF0.0
aF0.0
aF0.0
aF0.0
aF0.0
aa(lp207
F391.1928759516568
aF338.27880394426387
aF0.0
aF0.0
aF0.0
aF0.0
aF0.0
aa(lp208
F393.0576178966546
aF340.6273492135067
aF0.0
aF0.0
aF0.0
aF0.0
aF0.0
aa(lp209
F394.891472398018
aF342.9368103712248
aF0.0
aF0.0
aF0.0
aF0.0
aF0.0
aa(lp210
F396.6149717609584
aF345.39081277002936
aF0.0
aF0.0
aF0.0
aF0.0
aF0.0
aa(lp211
F398.33837116453446
aF347.84481516883386
aF0.0
aF0.0
aF0.0
aF0.0
aF0.0
aa(lp212
F400.06277016175545
aF350.3000170800126
aF0.0
aF0.0
aF0.0
aF0.0
aF0.0
aa(lp213
F401.6401289337773
aF352.850380306208
aF0.0
aF0.0
aF0.0
aF0.0
aF0.0
aa(lp214
F403.2175876651636
aF355.4007435324035
aF0.0
aF0.0
aF0.0
aF0.0
aF0.0
aa(lp215
F404.8144385132655
aF357.98239403969166
aF0.0
aF0.0
aF0.0
aF0.0
aF0.0
aa(lp216
F406.24165831978826
aF360.61982187237834
aF0.0
aF0.0
aF0.0
aF0.0
aF0.0
aa(lp217
F407.6688781263108
aF363.2571497457005
aF0.0
aF0.0
aF0.0
aF0.0
aF0.0
aa(lp218
F409.1228870425231
aF365.9440574638213
aF0.0
aF0.0
aF0.0
aF0.0
aF0.0
aa(lp219
F410.39467003722734
aF368.6596535195574
aF0.0
aF0.0
aF0.0
aF0.0
aF0.0
aa(lp220
F411.66655299129616
aF371.37544949402263
aF0.0
aF0.0
aF0.0
aF0.0
aF0.0
aa(lp221
F412.9641255020449
aF374.1461231596057
aF0.0
aF0.0
aF0.0
aF0.0
aF0.0
aa(lp222
F414.0765732697148
aF376.93089109558514
aF0.0
aF0.0
aF0.0
aF0.0
aF0.0
aa(lp223
F415.1890210373846
aF379.7157589909291
aF0.0
aF0.0
aF0.0
aF0.0
aF0.0
aa(lp224
F416.3193615313023
aF382.5453087222105
aF0.0
aF0.0
aF0.0
aF0.0
aF0.0
aa(lp225
F417.2680758598992
aF385.3900522768981
aF0.0
aF0.0
aF0.0
aF0.0
aF0.0
aa(lp226
F418.21659026976727
aF388.2348957909501
aF0.0
aF0.0
aF0.0
aF0.0
aF0.0
aa(lp227
F419.1716020383283
aF391.0986316248951
aF0.0
aF0.0
aF0.0
aF0.0
aF0.0
aa(lp228
F419.9519847970846
aF393.9940545773909
aF0.0
aF0.0
aF0.0
aF0.0
aF0.0
aa(lp229
F420.7324675152055
aF396.8895774892512
aF0.0
aF0.0
aF0.0
aF0.0
aF0.0
aa(lp230
F421.50695267145556
aF399.7632093002831
aF0.0
aF0.0
aF0.0
aF0.0
aF0.0
aa(lp231
F422.1153053638843
aF402.6996155922294
aF0.0
aF0.0
aF0.0
aF0.0
aF0.0
aa(lp232
F422.7235580969484
aF405.63602188417576
aF0.0
aF0.0
aF0.0
aF0.0
aF0.0
aa(lp233
F423.3154174942324
aF408.4925606438758
aF0.0
aF0.0
aF0.0
aF0.0
aF0.0
aa(lp234
F423.7470420302013
aF411.4601542575503
aF0.0
aF0.0
aF0.0
aF0.0
aF0.0
aa(lp235
F424.17866656617036
aF414.42764791186033
aF0.0
aF0.0
aF0.0
aF0.0
aF0.0
aa(lp236
F424.5882000825818
aF417.24310337274534
aF0.0
aF0.0
aF0.0
aF0.0
aF0.0
aa(lp237
F424.839198046875
aF420.23128861550964
aF0.0
aF0.0
aF0.0
aF0.0
aF0.0
aa(lp238
F425.09019601116825
aF423.21957381763843
aF0.0
aF0.0
aF0.0
aF0.0
aF0.0
aa(lp239
F425.32130206192323
aF425.97065544777683
aF0.0
aF0.0
aF0.0
aF0.0
aF0.0
aa(lp240
F425.38737520186646
aF428.96873666762787
aF0.0
aF0.0
aF0.0
aF0.0
aF0.0
aa(lp241
F425.4534483418099
aF431.966817887479
aF0.0
aF0.0
aF0.0
aF0.0
aF0.0
aa(lp242
F425.5122244481438
aF434.6299352768456
aF0.0
aF0.0
aF0.0
aF0.0
aF0.0
aa(lp243
F425.390373982802
aF437.6262172281355
aF0.0
aF0.0
aF0.0
aF0.0
aF0.0
aa(lp244
F425.26852351746015
aF440.6224991794253
aF0.0
aF0.0
aF0.0
aF0.0
aF0.0
aa(lp245
F425.16456577836607
aF443.1795596830432
aF0.0
aF0.0
aF0.0
aF0.0
aF0.0
aa(lp246
F424.85059341442957
aF446.1618473233012
aF0.0
aF0.0
aF0.0
aF0.0
aF0.0
aa(lp247
F424.53662105049284
aF449.1441349635591
aF0.0
aF0.0
aF0.0
aF0.0
aF0.0
aa(lp248
F424.2807250773385
aF451.57524666789004
aF0.0
aF0.0
aF0.0
aF0.0
aF0.0
aa(lp249
F423.7721318306942
aF454.53054527972944
aF0.0
aF0.0
aF0.0
aF0.0
aF0.0
aa(lp250
F423.2635385840499
aF457.4859438509333
aF0.0
aF0.0
aF0.0
aF0.0
aF0.0
aa(lp251
F423.06851786388415
aF458.619183166422
aF0.0
aF0.0
aF0.0
aF0.0
aF0.0
aa(lp252
F422.86899897231547
aF459.7782119979551
aF0.0
aF0.0
aF0.0
aF0.0
aF0.0
aa(lp253
F422.1632858588507
aF462.69272718907297
aF0.0
aF0.0
aF0.0
aF0.0
aF0.0
aa(lp254
F421.4574727860214
aF465.6073423395553
aF0.0
aF0.0
aF0.0
aF0.0
aF0.0
aa(lp255
F420.9393833997483
aF467.7469725369652
aF0.0
aF0.0
aF0.0
aF0.0
aF0.0
aa(lp256
F420.03535090708885
aF470.6062101995071
aF0.0
aF0.0
aF0.0
aF0.0
aF0.0
aa(lp257
F419.1313184144294
aF473.465447862049
aF0.0
aF0.0
aF0.0
aF0.0
aF0.0
aa(lp258
F418.505472833211
aF475.44504311687285
aF0.0
aF0.0
aF0.0
aF0.0
aF0.0
aa(lp259
F417.40252120516993
aF478.2336095087038
aF0.0
aF0.0
aF0.0
aF0.0
aF0.0
aa(lp260
F416.29956957712875
aF481.0222758598993
aF0.0
aF0.0
aF0.0
aF0.0
aF0.0
aa(lp261
F415.5820612586514
aF482.83653832581786
aF0.0
aF0.0
aF0.0
aF0.0
aF0.0
aa(lp262
F414.2809901701447
aF485.5383399892512
aF0.0
aF0.0
aF0.0
aF0.0
aF0.0
aa(lp263
F412.9800190410025
aF488.24024161204903
aF0.0
aF0.0
aF0.0
aF0.0
aF0.0
aa(lp264
F412.1870414023175
aF489.88707214240765
aF0.0
aF0.0
aF0.0
aF0.0
aF0.0
aa(lp265
F410.6905497561871
aF492.48571574166317
aF0.0
aF0.0
aF0.0
aF0.0
aF0.0
aa(lp266
F409.1939581506922
aF495.0844593002831
aF0.0
aF0.0
aF0.0
aF0.0
aF0.0
aa(lp267
F408.34070501520546
aF496.566057001101
aF0.0
aF0.0
aF0.0
aF0.0
aF0.0
aa(lp268
F406.65249130793836
aF499.0444494848469
aF0.0
aF0.0
aF0.0
aF0.0
aF0.0
aa(lp269
F404.96427760067115
aF501.52294192795716
aF0.0
aF0.0
aF0.0
aF0.0
aF0.0
aa(lp270
F404.0644434013212
aF502.8439049300021
aF0.0
aF0.0
aF0.0
aF0.0
aF0.0
aa(lp271
F402.19130486970425
aF505.18565296245805
aF0.0
aF0.0
aF0.0
aF0.0
aF0.0
aa(lp272
F400.31816633808717
aF507.52740099491393
aF0.0
aF0.0
aF0.0
aF0.0
aF0.0
aa(lp273
F399.3838461579803
aF508.6953262098888
aF0.0
aF0.0
aF0.0
aF0.0
aF0.0
aa(lp274
F397.3332797543519
aF510.88343669908767
aF0.0
aF0.0
aF0.0
aF0.0
aF0.0
aa(lp275
F395.28261339135906
aF513.0715471882866
aF0.0
aF0.0
aF0.0
aF0.0
aF0.0
aa(lp276
F394.3231034513947
aF514.0954309589974
aF0.0
aF0.0
aF0.0
aF0.0
aF0.0
aa(lp277
F392.10550494966435
aF516.1142102847105
aF0.0
aF0.0
aF0.0
aF0.0
aF0.0
aa(lp278
F389.8880064072987
aF518.1328896510591
aF0.0
aF0.0
aF0.0
aF0.0
aF0.0
aa(lp279
F388.9098040661702
aF519.0233276701447
aF0.0
aF0.0
aF0.0
aF0.0
aF0.0
aa(lp280
F386.53776834626683
aF520.8580818057885
aF0.0
aF0.0
aF0.0
aF0.0
aF0.0
aa(lp281
F384.16573262636325
aF522.6927359820679
aF0.0
aF0.0
aF0.0
aF0.0
aF0.0
aa(lp282
F383.17183666500637
aF523.4615234545406
aF0.0
aF0.0
aF0.0
aF0.0
aF0.0
aa(lp283
F380.6593580379614
aF525.0986579265415
aF0.0
aF0.0
aF0.0
aF0.0
aF0.0
aa(lp284
F378.1468794109164
aF526.7357923985423
aF0.0
aF0.0
aF0.0
aF0.0
aF0.0
aa(lp285
F377.1392890166212
aF527.392425464031
aF0.0
aF0.0
aF0.0
aF0.0
aF0.0
aaa(lp286
(lp287
F423.06851786388415
aF458.619183166422
aF0.0
aF0.0
aF0.0
aF0.0
aF0.0
aa(lp288
F420.19998398044254
aF457.74503852375204
aF0.0
aF0.0
aF0.0
aF0.0
aF0.0
aa(lp289
F417.41761506921137
aF456.8971831939493
aF0.0
aF0.0
aF0.0
aF0.0
aF0.0
aa(lp290
F414.61275530096464
aF455.8361145396392
aF0.0
aF0.0
aF0.0
aF0.0
aF0.0
aa(lp291
F411.8079954920827
aF454.7751458446938
aF0.0
aF0.0
aF0.0
aF0.0
aF0.0
aa(lp292
F411.13217022860727
aF454.51954974963303
aF0.0
aF0.0
aF0.0
aF0.0
aF0.0
aa(lp293
F408.4014803088296
aF453.279953670302
aF0.0
aF0.0
aF0.0
aF0.0
aF0.0
aa(lp294
F405.6708903484166
aF452.04045755033553
aF0.0
aF0.0
aF0.0
aF0.0
aF0.0
aa(lp295
F404.97287410601916
aF451.723586364828
aF0.0
aF0.0
aF0.0
aF0.0
aF0.0
aa(lp296
F402.3261500524329
aF450.3137594877307
aF0.0
aF0.0
aF0.0
aF0.0
aF0.0
aa(lp297
F399.6795259582109
aF448.9038326512689
aF0.0
aF0.0
aF0.0
aF0.0
aF0.0
aa(lp298
F398.9642167457529
aF448.5227875537436
aF0.0
aF0.0
aF0.0
aF0.0
aF0.0
aa(lp299
F396.41025498243494
aF446.9511264654991
aF0.0
aF0.0
aF0.0
aF0.0
aF0.0
aa(lp300
F393.85639317848154
aF445.3794653772546
aF0.0
aF0.0
aF0.0
aF0.0
aF0.0
aa(lp301
F393.1289888829174
aF444.9318473429635
aF0.0
aF0.0
aF0.0
aF0.0
aF0.0
aa(lp302
F390.67578615902903
aF443.2071484676489
aF0.0
aF0.0
aF0.0
aF0.0
aF0.0
aa(lp303
F388.222683394505
aF441.48234963296983
aF0.0
aF0.0
aF0.0
aF0.0
aF0.0
aa(lp304
F387.49118076499576
aF440.9680587025482
aF0.0
aF0.0
aF0.0
aF0.0
aF0.0
aa(lp305
F385.1461340735109
aF439.0990185048762
aF0.0
aF0.0
aF0.0
aF0.0
aF0.0
aa(lp306
F382.80118734139046
aF437.22987834783976
aF0.0
aF0.0
aF0.0
aF0.0
aF0.0
aa(lp307
F382.07108414298443
aF436.6480148870071
aF0.0
aF0.0
aF0.0
aF0.0
aF0.0
aa(lp308
F379.84129059878364
aF434.64292999423236
aF0.0
aF0.0
aF0.0
aF0.0
aF0.0
aa(lp309
F377.6113970952181
aF432.6377451420931
aF0.0
aF0.0
aF0.0
aF0.0
aF0.0
aa(lp310
F376.89108991453435
aF431.9901084194106
aF0.0
aF0.0
aF0.0
aF0.0
aF0.0
aa(lp311
F374.7822472013947
aF429.85807513370384
aF0.0
aF0.0
aF0.0
aF0.0
aF0.0
aa(lp312
F372.6733045288905
aF427.72614180736156
aF0.0
aF0.0
aF0.0
aF0.0
aF0.0
aa(lp313
F371.97079011509015
aF427.01603048185825
aF0.0
aF0.0
aF0.0
aF0.0
aF0.0
aa(lp314
F369.9888957948825
aF424.76554534920297
aF0.0
aF0.0
aF0.0
aF0.0
aF0.0
aa(lp315
F368.0069015153104
aF422.51506021654774
aF0.0
aF0.0
aF0.0
aF0.0
aF0.0
aa(lp316
F367.3282773896288
aF421.74457343487825
aF0.0
aF0.0
aF0.0
aF0.0
aF0.0
aa(lp317
F365.47862930867234
aF419.38413300125836
aF0.0
aF0.0
aF0.0
aF0.0
aF0.0
aa(lp318
F363.628981227716
aF417.02379252700285
aF0.0
aF0.0
aF0.0
aF0.0
aF0.0
aa(lp319
F362.9818443018561
aF416.1980282167575
aF0.0
aF0.0
aF0.0
aF0.0
aF0.0
aa(lp320
F361.26954038774113
aF413.7362289875209
aF0.0
aF0.0
aF0.0
aF0.0
aF0.0
aa(lp321
F359.55723647362623
aF411.27432979891984
aF0.0
aF0.0
aF0.0
aF0.0
aF0.0
aa(lp322
F358.9479841469169
aF410.3984858470532
aF0.0
aF0.0
aF0.0
aF0.0
aF0.0
aa(lp323
F357.3777224897756
aF407.84372440881924
aF0.0
aF0.0
aF0.0
aF0.0
aF0.0
aa(lp324
F355.80756079199875
aF405.28886301122066
aF0.0
aF0.0
aF0.0
aF0.0
aF0.0
aa(lp325
F355.2424905044043
aF404.36963669515524
aF0.0
aF0.0
aF0.0
aF0.0
aF0.0
aa(lp326
F353.8184693975461
aF401.73050955327176
aF0.0
aF0.0
aF0.0
aF0.0
aF0.0
aa(lp327
F352.39434833132344
aF399.09148237075294
aF0.0
aF0.0
aF0.0
aF0.0
aF0.0
aa(lp328
F351.87885788852765
aF398.1361707240981
aF0.0
aF0.0
aF0.0
aF0.0
aF0.0
aa(lp329
F350.60587538144927
aF395.42097450582
aF0.0
aF0.0
aF0.0
aF0.0
aF0.0
aa(lp330
F349.3328928743708
aF392.70577828754193
aF0.0
aF0.0
aF0.0
aF0.0
aF0.0
aa(lp331
F348.87138048841234
aF391.72127850644927
aF0.0
aF0.0
aF0.0
aF0.0
aF0.0
aa(lp332
F347.75333499632967
aF388.93880963585354
aF0.0
aF0.0
aF0.0
aF0.0
aF0.0
aa(lp333
F346.63518954488256
aF386.15624080589345
aF0.0
aF0.0
aF0.0
aF0.0
aF0.0
aa(lp334
F346.23145367161277
aF385.15144927380453
aF0.0
aF0.0
aF0.0
aF0.0
aF0.0
aa(lp335
F345.272243609742
aF382.310204296875
aF0.0
aF0.0
aF0.0
aF0.0
aF0.0
aa(lp336
F344.31313350723576
aF379.46895931994544
aF0.0
aF0.0
aF0.0
aF0.0
aF0.0
aa(lp337
F343.96987304949664
aF378.452172664115
aF0.0
aF0.0
aF0.0
aF0.0
aF0.0
aa(lp338
F343.17359675178267
aF375.5610479642932
aF0.0
aF0.0
aF0.0
aF0.0
aF0.0
aa(lp339
F342.3773204540688
aF372.6699232644715
aF0.0
aF0.0
aF0.0
aF0.0
aF0.0
aa(lp340
F342.0961347616925
aF371.6490382746959
aF0.0
aF0.0
aF0.0
aF0.0
aF0.0
aa(lp341
F341.4659909277999
aF368.7172301135172
aF0.0
aF0.0
aF0.0
aF0.0
aF0.0
aa(lp342
F340.83584709390726
aF365.7854219523385
aF0.0
aF0.0
aF0.0
aF0.0
aF0.0
aa(lp343
F340.6176358011745
aF364.7705345244337
aF0.0
aF0.0
aF0.0
aF0.0
aF0.0
aa(lp344
F340.1575228463192
aF361.8072391634333
aF0.0
aF0.0
aF0.0
aF0.0
aF0.0
aa(lp345
F339.6974098914639
aF358.8439438024329
aF0.0
aF0.0
aF0.0
aF0.0
aF0.0
aa(lp346
F339.5419730796456
aF357.8427508074664
aF0.0
aF0.0
aF0.0
aF0.0
aF0.0
aa(lp347
F339.2549897441275
aF354.8577642643666
aF0.0
aF0.0
aF0.0
aF0.0
aF0.0
aa(lp348
F338.9680064086095
aF351.87277772126674
aF0.0
aF0.0
aF0.0
aF0.0
aF0.0
aa(lp349
F338.87384468723786
aF350.8930759896707
aF0.0
aF0.0
aF0.0
aF0.0
aF0.0
aa(lp350
F338.76348954881496
aF347.89639420092277
aF0.0
aF0.0
aF0.0
aF0.0
aF0.0
aa(lp351
F338.65313441039217
aF344.89961245281035
aF0.0
aF0.0
aF0.0
aF0.0
aF0.0
aa(lp352
F338.61814863281245
aF343.9502983680264
aF0.0
aF0.0
aF0.0
aF0.0
aF0.0
aa(lp353
F338.68652083813964
aF340.95231710753984
aF0.0
aF0.0
aF0.0
aF0.0
aF0.0
aa(lp354
F338.75489304346684
aF337.95433584705324
aF0.0
aF0.0
aF0.0
aF0.0
aF0.0
aa(lp355
F338.77568459128565
aF337.0407072554006
aF0.0
aF0.0
aF0.0
aF0.0
aF0.0
aa(lp356
F339.02598284002727
aF334.0524220532718
aF0.0
aF0.0
aF0.0
aF0.0
aF0.0
aa(lp357
F339.2762810887689
aF331.06403689177847
aF0.0
aF0.0
aF0.0
aF0.0
aF0.0
aa(lp358
F339.3491514654992
aF330.1937906643247
aF0.0
aF0.0
aF0.0
aF0.0
aF0.0
aa(lp359
F339.78307506685195
aF327.2265968881082
aF0.0
aF0.0
aF0.0
aF0.0
aF0.0
aa(lp360
F340.21699866820467
aF324.25940311189174
aF0.0
aF0.0
aF0.0
aF0.0
aF0.0
aa(lp361
F340.3373497430788
aF323.4358379076657
aF0.0
aF0.0
aF0.0
aF0.0
aF0.0
aa(lp362
F340.956697965604
aF320.50173068110314
aF0.0
aF0.0
aF0.0
aF0.0
aF0.0
aa(lp363
F341.5760461881292
aF317.5676234545407
aF0.0
aF0.0
aF0.0
aF0.0
aF0.0
aa(lp364
F341.7387800335571
aF316.7967368354132
aF0.0
aF0.0
aF0.0
aF0.0
aF0.0
aa(lp365
F342.5441526334417
aF313.90811111970424
aF0.0
aF0.0
aF0.0
aF0.0
aF0.0
aa(lp366
F343.3494252739618
aF311.0194854039954
aF0.0
aF0.0
aF0.0
aF0.0
aF0.0
aa(lp367
F343.5492440436241
aF310.30287671979863
aF0.0
aF0.0
aF0.0
aF0.0
aF0.0
aa(lp368
F344.5409408989618
aF307.4728271916946
aF0.0
aF0.0
aF0.0
aF0.0
aF0.0
aa(lp369
F345.532737713664
aF304.6427776635906
aF0.0
aF0.0
aF0.0
aF0.0
aF0.0
aa(lp370
F345.7641436425126
aF303.98234614225044
aF0.0
aF0.0
aF0.0
aF0.0
aF0.0
aa(lp371
F346.71055890572563
aF301.76564727480076
aF0.0
aF0.0
aF0.0
aF0.0
aF0.0
aaa(lp372
(lp373
F678.126431706166
aF399.01471357880666
aF0.0
aF0.0
aF0.0
aF0.0
aF0.0
aa(lp374
F679.7521708106124
aF396.49483795878774
aF0.0
aF0.0
aF0.0
aF0.0
aF0.0
aa(lp375
F681.3779099150587
aF393.97506229813337
aF0.0
aF0.0
aF0.0
aF0.0
aF0.0
aa(lp376
F681.6552971515835
aF393.5451370713611
aF0.0
aF0.0
aF0.0
aF0.0
aF0.0
aa(lp377
F680.6043243930894
aF390.7365788066275
aF0.0
aF0.0
aF0.0
aF0.0
aF0.0
aa(lp378
F679.5532516752306
aF387.9280205418939
aF0.0
aF0.0
aF0.0
aF0.0
aF0.0
aa(lp379
F678.8575344982172
aF386.0688763213087
aF0.0
aF0.0
aF0.0
aF0.0
aF0.0
aa(lp380
F677.794466656617
aF383.2648162279782
aF0.0
aF0.0
aF0.0
aF0.0
aF0.0
aa(lp381
F676.7314987743813
aF380.4607561346476
aF0.0
aF0.0
aF0.0
aF0.0
aF0.0
aa(lp382
F676.029983954226
aF378.6104083381397
aF0.0
aF0.0
aF0.0
aF0.0
aF0.0
aa(lp383
F674.9549209888842
aF375.81094637557675
aF0.0
aF0.0
aF0.0
aF0.0
aF0.0
aa(lp384
F673.8797580641778
aF373.0114844130138
aF0.0
aF0.0
aF0.0
aF0.0
aF0.0
aa(lp385
F673.1723456415164
aF371.1692333250314
aF0.0
aF0.0
aF0.0
aF0.0
aF0.0
aa(lp386
F672.0840880400586
aF368.3748692900587
aF0.0
aF0.0
aF0.0
aF0.0
aF0.0
aa(lp387
F670.995830438601
aF365.58050525508594
aF0.0
aF0.0
aF0.0
aF0.0
aF0.0
aa(lp388
F670.280921063601
aF363.7448514851615
aF0.0
aF0.0
aF0.0
aF0.0
aF0.0
aa(lp389
F669.1797687041212
aF360.95568533714345
aF0.0
aF0.0
aF0.0
aF0.0
aF0.0
aa(lp390
F668.0784164259122
aF358.1664192297609
aF0.0
aF0.0
aF0.0
aF0.0
aF0.0
aa(lp391
F667.3563099766673
aF356.3375626966233
aF0.0
aF0.0
aF0.0
aF0.0
aF0.0
aa(lp392
F666.2409633874265
aF353.5538943136535
aF0.0
aF0.0
aF0.0
aF0.0
aF0.0
aa(lp393
F665.1255168388212
aF350.77032589004824
aF0.0
aF0.0
aF0.0
aF0.0
aF0.0
aa(lp394
F664.3950138029572
aF348.9472670000524
aF0.0
aF0.0
aF0.0
aF0.0
aF0.0
aa(lp395
F663.264973187133
aF346.16959617895344
aF0.0
aF0.0
aF0.0
aF0.0
aF0.0
aa(lp396
F662.1349325713087
aF343.3918253984899
aF0.0
aF0.0
aF0.0
aF0.0
aF0.0
aa(lp397
F661.3954331926384
aF341.57416431417784
aF0.0
aF0.0
aF0.0
aF0.0
aF0.0
aa(lp398
F660.250598590866
aF338.80249105494966
aF0.0
aF0.0
aF0.0
aF0.0
aF0.0
aa(lp399
F659.1056640297294
aF336.03091775508597
aF0.0
aF0.0
aF0.0
aF0.0
aF0.0
aa(lp400
F658.3565685520658
aF334.2172550453544
aF0.0
aF0.0
aF0.0
aF0.0
aF0.0
aa(lp401
F657.1961402894294
aF331.4521791041841
aF0.0
aF0.0
aF0.0
aF0.0
aF0.0
aa(lp402
F656.0356120674287
aF328.6870032036493
aF0.0
aF0.0
aF0.0
aF0.0
aF0.0
aa(lp403
F655.2768205314073
aF326.8789382183306
aF0.0
aF0.0
aF0.0
aF0.0
aF0.0
aa(lp404
F654.1005986891779
aF324.12055955458266
aF0.0
aF0.0
aF0.0
aF0.0
aF0.0
aa(lp405
F652.9242768875838
aF321.3620809314702
aF0.0
aF0.0
aF0.0
aF0.0
aF0.0
aa(lp406
F652.1543898621015
aF319.5566148896288
aF0.0
aF0.0
aF0.0
aF0.0
aF0.0
aa(lp407
F650.9613748466338
aF316.8053333407613
aF0.0
aF0.0
aF0.0
aF0.0
aF0.0
aa(lp408
F649.7682598718015
aF314.05405179189387
aF0.0
aF0.0
aF0.0
aF0.0
aF0.0
aa(lp409
F648.9872773568583
aF312.2530839214555
aF0.0
aF0.0
aF0.0
aF0.0
aF0.0
aa(lp410
F647.7776690868812
aF309.50909940619755
aF0.0
aF0.0
aF0.0
aF0.0
aF0.0
aa(lp411
F646.5680608169043
aF306.76511489093957
aF0.0
aF0.0
aF0.0
aF0.0
aF0.0
aa(lp412
F645.7759828124999
aF304.96814539508176
aF0.0
aF0.0
aF0.0
aF0.0
aF0.0
aa(lp413
F644.5488816537332
aF302.23195771025587
aF0.0
aF0.0
aF0.0
aF0.0
aF0.0
aa(lp414
F643.3219804136955
aF299.4956700660654
aF0.0
aF0.0
aF0.0
aF0.0
aF0.0
aa(lp415
F642.518207163643
aF297.7031987416107
aF0.0
aF0.0
aF0.0
aF0.0
aF0.0
aa(lp416
F641.2739129941799
aF294.97470792785236
aF0.0
aF0.0
aF0.0
aF0.0
aF0.0
aa(lp417
F640.0296188247169
aF292.2463170734585
aF0.0
aF0.0
aF0.0
aF0.0
aF0.0
aa(lp418
F639.2134506134647
aF290.45674457057464
aF0.0
aF0.0
aF0.0
aF0.0
aF0.0
aa(lp419
F637.9513636771183
aF287.7364504247064
aF0.0
aF0.0
aF0.0
aF0.0
aF0.0
aa(lp420
F636.6893767001363
aF285.0162562382026
aF0.0
aF0.0
aF0.0
aF0.0
aF0.0
aa(lp421
F635.8613133245071
aF283.2316817035445
aF0.0
aF0.0
aF0.0
aF0.0
aF0.0
aa(lp422
F634.5813336619128
aF280.5197841442953
aF0.0
aF0.0
aF0.0
aF0.0
aF0.0
aa(lp423
F633.3013539993183
aF277.80788658504616
aF0.0
aF0.0
aF0.0
aF0.0
aF0.0
aa(lp424
F632.4610955812185
aF276.0277102624266
aF0.0
aF0.0
aF0.0
aF0.0
aF0.0
aa(lp425
F631.1628233549181
aF273.3245091678901
aF0.0
aF0.0
aF0.0
aF0.0
aF0.0
aa(lp426
F629.8645511286179
aF270.6213080733536
aF0.0
aF0.0
aF0.0
aF0.0
aF0.0
aa(lp427
F629.0122975867763
aF268.84672947514684
aF0.0
aF0.0
aF0.0
aF0.0
aF0.0
aa(lp428
F627.6959327154991
aF266.1523248046875
aF0.0
aF0.0
aF0.0
aF0.0
aF0.0
aa(lp429
F626.3795678442219
aF263.4579201342282
aF0.0
aF0.0
aF0.0
aF0.0
aF0.0
aa(lp430
F625.5150193005452
aF261.68833950424704
aF0.0
aF0.0
aF0.0
aF0.0
aF0.0
aa(lp431
F624.1809616217491
aF259.00263129850043
aF0.0
aF0.0
aF0.0
aF0.0
aF0.0
aa(lp432
F622.8470039023176
aF256.31692309275377
aF0.0
aF0.0
aF0.0
aF0.0
aF0.0
aa(lp433
F621.9708600723573
aF254.55304014654993
aF0.0
aF0.0
aF0.0
aF0.0
aF0.0
aa(lp434
F620.6186097892197
aF251.87642824297393
aF0.0
aF0.0
aF0.0
aF0.0
aF0.0
aa(lp435
F619.2662595467177
aF249.19991629876253
aF0.0
aF0.0
aF0.0
aF0.0
aF0.0
aa(lp436
F618.3778207149224
aF247.44143115824244
aF0.0
aF0.0
aF0.0
aF0.0
aF0.0
aa(lp437
F617.0078776242659
aF244.7739155568373
aF0.0
aF0.0
aF0.0
aF0.0
aF0.0
aa(lp438
F615.6379345336094
aF242.1062999960675
aF0.0
aF0.0
aF0.0
aF0.0
aF0.0
aa(lp439
F614.7383002529886
aF240.3548120110633
aF0.0
aF0.0
aF0.0
aF0.0
aF0.0
aa(lp440
F613.3506643548133
aF237.69639271182885
aF0.0
aF0.0
aF0.0
aF0.0
aF0.0
aa(lp441
F611.963028456638
aF235.03797341259437
aF0.0
aF0.0
aF0.0
aF0.0
aF0.0
aa(lp442
F611.0522986865561
aF233.29318270501258
aF0.0
aF0.0
aF0.0
aF0.0
aF0.0
aa(lp443
F609.647569737049
aF230.64385970794885
aF0.0
aF0.0
aF0.0
aF0.0
aF0.0
aa(lp444
F608.2427408281774
aF227.9944367515206
aF0.0
aF0.0
aF0.0
aF0.0
aF0.0
aa(lp445
F607.3212154467282
aF226.2565432400902
aF0.0
aF0.0
aF0.0
aF0.0
aF0.0
aa(lp446
F605.8991935271603
aF223.61631654519718
aF0.0
aF0.0
aF0.0
aF0.0
aF0.0
aa(lp447
F604.4771716075921
aF220.97608985030413
aF0.0
aF0.0
aF0.0
aF0.0
aF0.0
aa(lp448
F603.5443508179529
aF219.24409394138004
aF0.0
aF0.0
aF0.0
aF0.0
aF0.0
aa(lp449
F602.1059355626049
aF216.61276362992874
aF0.0
aF0.0
aF0.0
aF0.0
aF0.0
aa(lp450
F600.6676202666213
aF213.98143331847731
aF0.0
aF0.0
aF0.0
aF0.0
aF0.0
aa(lp451
F599.7250034592596
aF212.25693436189178
aF0.0
aF0.0
aF0.0
aF0.0
aF0.0
aa(lp452
F598.2705947055894
aF209.6345004338821
aF0.0
aF0.0
aF0.0
aF0.0
aF0.0
aa(lp453
F596.8160859925545
aF207.01196654650792
aF0.0
aF0.0
aF0.0
aF0.0
aF0.0
aa(lp454
F595.8635732081061
aF205.29446474543838
aF0.0
aF0.0
aF0.0
aF0.0
aF0.0
aa(lp455
F594.3937707123007
aF202.68052736341238
aF0.0
aF0.0
aF0.0
aF0.0
aF0.0
aa(lp456
F592.9239682164954
aF200.06668994075082
aF0.0
aF0.0
aF0.0
aF0.0
aF0.0
aa(lp457
F591.961359536231
aF198.3548858234585
aF0.0
aF0.0
aF0.0
aF0.0
aF0.0
aa(lp458
F590.4761632982907
aF195.7496449061451
aF0.0
aF0.0
aF0.0
aF0.0
aF0.0
aa(lp459
F588.9909670603502
aF193.14450394819636
aF0.0
aF0.0
aF0.0
aF0.0
aF0.0
aa(lp460
F588.0185623623636
aF191.43869739277477
aF0.0
aF0.0
aF0.0
aF0.0
aF0.0
aa(lp461
F586.5188720165687
aF188.84185306208047
aF0.0
aF0.0
aF0.0
aF0.0
aF0.0
aa(lp462
F585.019181670774
aF186.2450087313863
aF0.0
aF0.0
aF0.0
aF0.0
aF0.0
aa(lp463
F584.0368809957005
aF184.54410018482588
aF0.0
aF0.0
aF0.0
aF0.0
aF0.0
aa(lp464
F582.5233962576027
aF181.95525260329282
aF0.0
aF0.0
aF0.0
aF0.0
aF0.0
aa(lp465
F581.0098115601404
aF179.3665049811241
aF0.0
aF0.0
aF0.0
aF0.0
aF0.0
aa(lp466
F580.0180147454383
aF177.67019456533131
aF0.0
aF0.0
aF0.0
aF0.0
aF0.0
aa(lp467
F578.4912354118602
aF175.08924377359477
aF0.0
aF0.0
aF0.0
aF0.0
aF0.0
aa(lp468
F576.9643561189179
aF172.50829298185818
aF0.0
aF0.0
aF0.0
aF0.0
aF0.0
aa(lp469
F575.9629632052223
aF170.81548114382338
aF0.0
aF0.0
aF0.0
aF0.0
aF0.0
aa(lp470
F574.4225893980705
aF168.24252710124796
aF0.0
aF0.0
aF0.0
aF0.0
aF0.0
aa(lp471
F572.8822155909186
aF165.66957305867237
aF0.0
aF0.0
aF0.0
aF0.0
aF0.0
aa(lp472
F571.8708267407717
aF163.9801598390311
aF0.0
aF0.0
aF0.0
aF0.0
aF0.0
aa(lp473
F570.3187576879719
aF161.414302911336
aF0.0
aF0.0
aF0.0
aF0.0
aF0.0
aa(lp474
F568.7666886351719
aF158.84834602427642
aF0.0
aF0.0
aF0.0
aF0.0
aF0.0
aa(lp475
F567.7460035641253
aF157.16103195128989
aF0.0
aF0.0
aF0.0
aF0.0
aF0.0
aa(lp476
F566.1819393875838
aF154.60237209783975
aF0.0
aF0.0
aF0.0
aF0.0
aF0.0
aa(lp477
F564.6177752516778
aF152.04391216311876
aF0.0
aF0.0
aF0.0
aF0.0
aF0.0
aa(lp478
F563.5869942848154
aF150.3576976431418
aF0.0
aF0.0
aF0.0
aF0.0
aF0.0
aa(lp479
F562.0117346594484
aF147.80593498584307
aF0.0
aF0.0
aF0.0
aF0.0
aF0.0
aa(lp480
F560.4364750340812
aF145.25417232854448
aF0.0
aF0.0
aF0.0
aF0.0
aF0.0
aa(lp481
F559.395598171403
aF143.56815772729664
aF0.0
aF0.0
aF0.0
aF0.0
aF0.0
aa(lp482
F557.8096428940331
aF141.02309234742035
aF0.0
aF0.0
aF0.0
aF0.0
aF0.0
aa(lp483
F556.223687616663
aF138.47802696754405
aF0.0
aF0.0
aF0.0
aF0.0
aF0.0
aa(lp484
F555.1723150207109
aF136.79101277265107
aF0.0
aF0.0
aF0.0
aF0.0
aF0.0
aa(lp485
F552.1829302655726
aF136.55430899748325
aF0.0
aF0.0
aF0.0
aF0.0
aF0.0
aa(lp486
F549.1935455104342
aF136.31760522231548
aF0.0
aF0.0
aF0.0
aF0.0
aF0.0
aa(lp487
F545.7098616977769
aF136.04651542575505
aF0.0
aF0.0
aF0.0
aF0.0
aF0.0
aa(lp488
F542.7199771458158
aF135.8146097000839
aF0.0
aF0.0
aF0.0
aF0.0
aF0.0
aa(lp489
F542.2201803232488
aF135.7758254666527
aF0.0
aF0.0
aF0.0
aF0.0
aF0.0
aa(lp490
F539.2299958931942
aF135.54891770920722
aF0.0
aF0.0
aF0.0
aF0.0
aF0.0
aa(lp491
F536.2398114631396
aF135.3220099517618
aF0.0
aF0.0
aF0.0
aF0.0
aF0.0
aa(lp492
F532.7403340708893
aF135.06131592911075
aF0.0
aF0.0
aF0.0
aF0.0
aF0.0
aa(lp493
F529.7497498033766
aF134.83930618052636
aF0.0
aF0.0
aF0.0
aF0.0
aF0.0
aa(lp494
F529.2292613923553
aF134.80072186582424
aF0.0
aF0.0
aF0.0
aF0.0
aF0.0
aa(lp495
F526.2383772467491
aF134.58430984165267
aF0.0
aF0.0
aF0.0
aF0.0
aF0.0
aa(lp496
F523.2473931417785
aF134.3678978174811
aF0.0
aF0.0
aF0.0
aF0.0
aF0.0
aa(lp497
F519.722226192848
aF134.11799940619755
aF0.0
aF0.0
aF0.0
aF0.0
aF0.0
aa(lp498
F516.730942209784
aF133.90668530961614
aF0.0
aF0.0
aF0.0
aF0.0
aF0.0
aa(lp499
F516.180166111315
aF133.86780111682043
aF0.0
aF0.0
aF0.0
aF0.0
aF0.0
aa(lp500
F513.1883823314283
aF133.66248458210993
aF0.0
aF0.0
aF0.0
aF0.0
aF0.0
aa(lp501
F510.196698510906
aF133.45716804739928
aF0.0
aF0.0
aF0.0
aF0.0
aF0.0
aa(lp502
F506.6355461907508
aF133.2181652068477
aF0.0
aF0.0
aF0.0
aF0.0
aF0.0
aa(lp503
F503.64336257340597
aF133.0182464778209
aF0.0
aF0.0
aF0.0
aF0.0
aF0.0
aa(lp504
F503.0532024853187
aF132.97886248820262
aF0.0
aF0.0
aF0.0
aF0.0
aF0.0
aa(lp505
F500.0606190305159
aF132.78484136168203
aF0.0
aF0.0
aF0.0
aF0.0
aF0.0
aa(lp506
F497.06813553507754
aF132.5907202757969
aF0.0
aF0.0
aF0.0
aF0.0
aF0.0
aa(lp507
F496.4551847118812
aF132.55103640808517
aF0.0
aF0.0
aF0.0
aF0.0
aF0.0
aa(lp508
F493.4623013789849
aF132.36301284343546
aF0.0
aF0.0
aF0.0
aF0.0
aF0.0
aa(lp509
F490.46941804608855
aF132.17508923815012
aF0.0
aF0.0
aF0.0
aF0.0
aF0.0
aa(lp510
F486.8382941707739
aF131.95297953020136
aF0.0
aF0.0
aF0.0
aF0.0
aF0.0
aa(lp511
F483.8450110004194
aF131.77095352742242
aF0.0
aF0.0
aF0.0
aF0.0
aF0.0
aa(lp512
F483.18158069814376
aF131.73056994415901
aF0.0
aF0.0
aF0.0
aF0.0
aF0.0
aa(lp513
F480.1878976903313
aF131.55484138134435
aF0.0
aF0.0
aF0.0
aF0.0
aF0.0
aa(lp514
F477.19431464188335
aF131.37911281852976
aF0.0
aF0.0
aF0.0
aF0.0
aF0.0
aa(lp515
F473.508712912909
aF131.168698356229
aF0.0
aF0.0
aF0.0
aF0.0
aF0.0
aa(lp516
F470.5147300270029
aF130.99886739592068
aF0.0
aF0.0
aF0.0
aF0.0
aF0.0
aa(lp517
F469.7939230494966
aF130.95798401583474
aF0.0
aF0.0
aF0.0
aF0.0
aF0.0
aa(lp518
F466.79964028549705
aF130.79455045485528
aF0.0
aF0.0
aF0.0
aF0.0
aF0.0
aa(lp519
F463.80525756213297
aF130.63111689387586
aF0.0
aF0.0
aF0.0
aF0.0
aF0.0
aa(lp520
F463.0559621657403
aF130.59023351378988
aF0.0
aF0.0
aF0.0
aF0.0
aF0.0
aa(lp521
F460.0612795642828
aF130.43289747404572
aF0.0
aF0.0
aF0.0
aF0.0
aF0.0
aa(lp522
F457.06669692218964
aF130.27556143430166
aF0.0
aF0.0
aF0.0
aF0.0
aF0.0
aa(lp523
F456.28761363517197
aF130.23467805421558
aF0.0
aF0.0
aF0.0
aF0.0
aF0.0
aa(lp524
F453.2926311556207
aF130.08373941380034
aF0.0
aF0.0
aF0.0
aF0.0
aF0.0
aa(lp525
F450.2976486760697
aF129.93280077338503
aF0.0
aF0.0
aF0.0
aF0.0
aF0.0
aa(lp526
F449.48847762033336
aF129.89201735266354
aF0.0
aF0.0
aF0.0
aF0.0
aF0.0
aa(lp527
F446.4931952626887
aF129.7471762334836
aF0.0
aF0.0
aF0.0
aF0.0
aF0.0
aa(lp528
F443.4978129456796
aF129.60233511430363
aF0.0
aF0.0
aF0.0
aF0.0
aF0.0
aa(lp529
F439.6638715197672
aF129.42310797373116
aF0.0
aF0.0
aF0.0
aF0.0
aF0.0
aa(lp530
F436.668289284029
aF129.284264416422
aF0.0
aF0.0
aF0.0
aF0.0
aF0.0
aa(lp531
F435.79994228450084
aF129.24408075188757
aF0.0
aF0.0
aF0.0
aF0.0
aF0.0
aa(lp532
F432.80416013003355
aF129.11113479708467
aF0.0
aF0.0
aF0.0
aF0.0
aF0.0
aa(lp533
F429.80837797556626
aF128.9781888422819
aF0.0
aF0.0
aF0.0
aF0.0
aF0.0
aa(lp534
F428.9117424758808
aF128.93850497457004
aF0.0
aF0.0
aF0.0
aF0.0
aF0.0
aa(lp535
F425.9156604433199
aF128.81145662227343
aF0.0
aF0.0
aF0.0
aF0.0
aF0.0
aa(lp536
F422.9195784107592
aF128.68440826997696
aF0.0
aF0.0
aF0.0
aF0.0
aF0.0
aa(lp537
F421.99545408583253
aF128.64522419908764
aF0.0
aF0.0
aF0.0
aF0.0
aF0.0
aa(lp538
F418.99917213454273
aF128.5243733273909
aF0.0
aF0.0
aF0.0
aF0.0
aF0.0
aa(lp539
F416.0027902238885
aF128.40362241505875
aF0.0
aF0.0
aF0.0
aF0.0
aF0.0
aa(lp540
F415.05267646418827
aF128.36523801908558
aF0.0
aF0.0
aF0.0
aF0.0
aF0.0
aa(lp541
F412.0560946348048
aF128.24978495307258
aF0.0
aF0.0
aF0.0
aF0.0
aF0.0
aa(lp542
F409.0595128054215
aF128.1344318464241
aF0.0
aF0.0
aF0.0
aF0.0
aF0.0
aa(lp543
F408.0832096922188
aF128.09674716600253
aF0.0
aF0.0
aF0.0
aF0.0
aF0.0
aa(lp544
F405.0864279441066
aF127.98689182440225
aF0.0
aF0.0
aF0.0
aF0.0
aF0.0
aa(lp545
F402.0896461959942
aF127.87703648280197
aF0.0
aF0.0
aF0.0
aF0.0
aF0.0
aa(lp546
F401.09085222577596
aF127.84045135539014
aF0.0
aF0.0
aF0.0
aF0.0
aF0.0
aa(lp547
F398.09387055893455
aF127.73589386010909
aF0.0
aF0.0
aF0.0
aF0.0
aF0.0
aa(lp548
F395.09688889209315
aF127.63133636482804
aF0.0
aF0.0
aF0.0
aF0.0
aF0.0
aa(lp549
F394.07460447121434
aF127.59565087169673
aF0.0
aF0.0
aF0.0
aF0.0
aF0.0
aa(lp550
F391.0775228450084
aF127.49609134464136
aF0.0
aF0.0
aF0.0
aF0.0
aF0.0
aa(lp551
F388.080341259438
aF127.39653181758598
aF0.0
aF0.0
aF0.0
aF0.0
aF0.0
aa(lp552
F387.03906455930155
aF127.36184591809979
aF0.0
aF0.0
aF0.0
aF0.0
aF0.0
aa(lp553
F384.0417830143665
aF127.26758423736365
aF0.0
aF0.0
aF0.0
aF0.0
aF0.0
aa(lp554
F381.0445014694317
aF127.17332255662751
aF0.0
aF0.0
aF0.0
aF0.0
aF0.0
aa(lp555
F379.9840325713087
aF127.1400360882445
aF0.0
aF0.0
aF0.0
aF0.0
aF0.0
aa(lp556
F376.9866510670092
aF127.05027257891147
aF0.0
aF0.0
aF0.0
aF0.0
aF0.0
aa(lp557
F373.9891696033452
aF126.96050906957845
aF0.0
aF0.0
aF0.0
aF0.0
aF0.0
aa(lp558
F372.9110078977034
aF126.92822219484064
aF0.0
aF0.0
aF0.0
aF0.0
aF0.0
aa(lp559
F369.91342647467485
aF126.84315677563971
aF0.0
aF0.0
aF0.0
aF0.0
aF0.0
aa(lp560
F366.9158450516464
aF126.75809135643878
aF0.0
aF0.0
aF0.0
aF0.0
aF0.0
aa(lp561
F365.8227894006921
aF126.72700399407506
aF0.0
aF0.0
aF0.0
aF0.0
aF0.0
aa(lp562
F362.8251080182991
aF126.64613686818379
aF0.0
aF0.0
aF0.0
aF0.0
aF0.0
aa(lp563
F359.8274266359061
aF126.56516978292788
aF0.0
aF0.0
aF0.0
aF0.0
aF0.0
aa(lp564
F358.7195769990037
aF126.53528193293837
aF0.0
aF0.0
aF0.0
aF0.0
aF0.0
aa(lp565
F355.7217956572462
aF126.4587130597211
aF0.0
aF0.0
aF0.0
aF0.0
aF0.0
aa(lp566
F352.72401431548866
aF126.38214418650374
aF0.0
aF0.0
aF0.0
aF0.0
aF0.0
aa(lp567
F351.60366975802225
aF126.3536557676174
aF0.0
aF0.0
aF0.0
aF0.0
aF0.0
aa(lp568
F348.6056884975356
aF126.2809853096162
aF0.0
aF0.0
aF0.0
aF0.0
aF0.0
aa(lp569
F345.60780719641355
aF126.20841481097949
aF0.0
aF0.0
aF0.0
aF0.0
aF0.0
aa(lp570
F344.47646710885067
aF126.18092598573827
aF0.0
aF0.0
aF0.0
aF0.0
aF0.0
aa(lp571
F341.4784858483641
aF126.11215394295303
aF0.0
aF0.0
aF0.0
aF0.0
aF0.0
aa(lp572
F338.4805045878775
aF126.04338190016777
aF0.0
aF0.0
aF0.0
aF0.0
aF0.0
aa(lp573
F337.33846884831166
aF126.01719254666523
aF0.0
aF0.0
aF0.0
aF0.0
aF0.0
aa(lp574
F334.3403876284606
aF125.95221895973158
aF0.0
aF0.0
aF0.0
aF0.0
aF0.0
aa(lp575
F331.3423064086095
aF125.88724537279779
aF0.0
aF0.0
aF0.0
aF0.0
aF0.0
aa(lp576
F330.19197404178897
aF125.86235549103395
aF0.0
aF0.0
aF0.0
aF0.0
aF0.0
aa(lp577
F327.1937928625734
aF125.80038068503562
aF0.0
aF0.0
aF0.0
aF0.0
aF0.0
aa(lp578
F324.1957116427223
aF125.73850583840189
aF0.0
aF0.0
aF0.0
aF0.0
aF0.0
aa(lp579
F323.0372825673762
aF125.71451559091867
aF0.0
aF0.0
aF0.0
aF0.0
aF0.0
aa(lp580
F320.03910138816065
aF125.6562392814073
aF0.0
aF0.0
aF0.0
aF0.0
aF0.0
aa(lp581
F317.040920208945
aF125.59786301253146
aF0.0
aF0.0
aF0.0
aF0.0
aF0.0
aa(lp582
F315.8756938968121
aF125.57517223678693
aF0.0
aF0.0
aF0.0
aF0.0
aF0.0
aa(lp583
F312.87741275823197
aF125.51989470821101
aF0.0
aF0.0
aF0.0
aF0.0
aF0.0
aa(lp584
F309.87913161965184
aF125.4646171796351
aF0.0
aF0.0
aF0.0
aF0.0
aF0.0
aa(lp585
F308.70750790819
aF125.44302595690017
aF0.0
aF0.0
aF0.0
aF0.0
aF0.0
aa(lp586
F305.74021417260906
aF125.87664968015942
aF0.0
aF0.0
aF0.0
aF0.0
aF0.0
aa(lp587
F305.00161442821934
aF125.98460579383386
aF0.0
aF0.0
aF0.0
aF0.0
aF0.0
aa(lp588
F302.0343206926384
aF126.41832947645759
aF0.0
aF0.0
aF0.0
aF0.0
aF0.0
aa(lp589
F301.264233748427
aF126.53098368026423
aF0.0
aF0.0
aF0.0
aF0.0
aF0.0
aa(lp590
F298.296940012846
aF126.96470736288798
aF0.0
aF0.0
aF0.0
aF0.0
aF0.0
aa(lp591
F297.4935666002516
aF127.08205965682671
aF0.0
aF0.0
aF0.0
aF0.0
aF0.0
aa(lp592
F294.5263728240352
aF127.51628313627313
aF0.0
aF0.0
aF0.0
aF0.0
aF0.0
aa(lp593
F293.6897129430579
aF127.63873335780201
aF0.0
aF0.0
aF0.0
aF0.0
aF0.0
aa(lp594
F290.72251916684144
aF128.07255699979024
aF0.0
aF0.0
aF0.0
aF0.0
aF0.0
aa(lp595
F289.85337249239717
aF128.19960535208682
aF0.0
aF0.0
aF0.0
aF0.0
aF0.0
aa(lp596
F286.8860787568163
aF128.63332903471058
aF0.0
aF0.0
aF0.0
aF0.0
aF0.0
aa(lp597
F285.9822461828859
aF128.76547531459732
aF0.0
aF0.0
aF0.0
aF0.0
aF0.0
aa(lp598
F283.01495244730495
aF129.19919899722106
aF0.0
aF0.0
aF0.0
aF0.0
aF0.0
aa(lp599
F282.07743356753355
aF129.3361433266044
aF0.0
aF0.0
aF0.0
aF0.0
aF0.0
aa(lp600
F279.11013983195255
aF129.76986700922825
aF0.0
aF0.0
aF0.0
aF0.0
aF0.0
aa(lp601
F278.1371353777789
aF129.9121091849308
aF0.0
aF0.0
aF0.0
aF0.0
aF0.0
aa(lp602
F275.1699416015625
aF130.3464326237416
aF0.0
aF0.0
aF0.0
aF0.0
aF0.0
aa(lp603
F274.16145157298655
aF130.4940726051279
aF0.0
aF0.0
aF0.0
aF0.0
aF0.0
aa(lp604
F271.1941578374056
aF130.92789624711614
aF0.0
aF0.0
aF0.0
aF0.0
aF0.0
aa(lp605
F270.1507819906145
aF131.08043423736362
aF0.0
aF0.0
aF0.0
aF0.0
aF0.0
aa(lp606
F267.1834882550336
aF131.51405796062286
aF0.0
aF0.0
aF0.0
aF0.0
aF0.0
aa(lp607
F266.10302748400795
aF131.67189379718963
aF0.0
aF0.0
aF0.0
aF0.0
aF0.0
aa(lp608
F263.1358337077915
aF132.10571743917782
aF0.0
aF0.0
aF0.0
aF0.0
aF0.0
aa(lp609
F262.01938756554114
aF132.2689510814283
aF0.0
aF0.0
aF0.0
aF0.0
aF0.0
aa(lp610
F259.05219378932463
aF132.70267476405203
aF0.0
aF0.0
aF0.0
aF0.0
aF0.0
aa(lp611
F257.89776308855915
aF132.8714061713506
aF0.0
aF0.0
aF0.0
aF0.0
aF0.0
aa(lp612
F254.9305693123427
aF133.30562965079702
aF0.0
aF0.0
aF0.0
aF0.0
aF0.0
aa(lp613
F253.7381540530621
aF133.4800587418729
aF0.0
aF0.0
aF0.0
aF0.0
aF0.0
aa(lp614
F250.77096027684559
aF133.9138823838611
aF0.0
aF0.0
aF0.0
aF0.0
aF0.0
aa(lp615
F249.54126017460146
aF134.09360932125628
aF0.0
aF0.0
aF0.0
aF0.0
aF0.0
aa(lp616
F246.57396643902052
aF134.52733300388002
aF0.0
aF0.0
aF0.0
aF0.0
aF0.0
aa(lp617
F245.3046824284291
aF134.71285758441695
aF0.0
aF0.0
aF0.0
aF0.0
aF0.0
aa(lp618
F242.3373886928482
aF135.14678118576975
aF0.0
aF0.0
aF0.0
aF0.0
aF0.0
aa(lp619
F241.02952036755448
aF135.33800345008387
aF0.0
aF0.0
aF0.0
aF0.0
aF0.0
aa(lp620
F238.0623265913381
aF135.77152721397863
aF0.0
aF0.0
aF0.0
aF0.0
aF0.0
aa(lp621
F236.71357488595845
aF135.9686470807991
aF0.0
aF0.0
aF0.0
aF0.0
aF0.0
aa(lp622
F233.74638110974195
aF136.40297051960985
aF0.0
aF0.0
aF0.0
aF0.0
aF0.0
aa(lp623
F232.357245821099
aF136.60628786703015
aF0.0
aF0.0
aF0.0
aF0.0
aF0.0
aa(lp624
F229.38995208551796
aF137.0401115090185
aF0.0
aF0.0
aF0.0
aF0.0
aF0.0
aa(lp625
F227.9606331323406
aF137.24902658085148
aF0.0
aF0.0
aF0.0
aF0.0
aF0.0
aa(lp626
F224.9934393561242
aF137.68265030411072
aF0.0
aF0.0
aF0.0
aF0.0
aF0.0
aa(lp627
F223.52153771366397
aF137.89776285654358
aF0.0
aF0.0
aF0.0
aF0.0
aF0.0
aa(lp628
F220.55434393744758
aF138.3315864985318
aF0.0
aF0.0
aF0.0
aF0.0
aF0.0
aa(lp629
F219.04115907744335
aF138.55279657220007
aF0.0
aF0.0
aF0.0
aF0.0
aF0.0
aa(lp630
F216.07386534186242
aF138.9865202548238
aF0.0
aF0.0
aF0.0
aF0.0
aF0.0
aa(lp631
F214.51709819893034
aF139.21412772782088
aF0.0
aF0.0
aF0.0
aF0.0
aF0.0
aa(lp632
F211.5499044227139
aF139.64835120726718
aF0.0
aF0.0
aF0.0
aF0.0
aF0.0
aa(lp633
F209.94955499685403
aF139.88255599832212
aF0.0
aF0.0
aF0.0
aF0.0
aF0.0
aa(lp634
F206.98226126127304
aF140.31627968094583
aF0.0
aF0.0
aF0.0
aF0.0
aF0.0
aa(lp635
F205.33862943057886
aF140.55658199323614
aF0.0
aF0.0
aF0.0
aF0.0
aF0.0
aa(lp636
F202.37133569499792
aF140.99030567585987
aF0.0
aF0.0
aF0.0
aF0.0
aF0.0
aa(lp637
F200.68232231281456
aF141.23720530620807
aF0.0
aF0.0
aF0.0
aF0.0
aF0.0
aa(lp638
F197.71502857723362
aF141.6710289481963
aF0.0
aF0.0
aF0.0
aF0.0
aF0.0
aa(lp639
F195.98143331847734
aF141.92442593723786
aF0.0
aF0.0
aF0.0
aF0.0
aF0.0
aa(lp640
F193.0141395828964
aF142.3581496198616
aF0.0
aF0.0
aF0.0
aF0.0
aF0.0
aa(lp641
F191.23356342281875
aF142.61834384568994
aF0.0
aF0.0
aF0.0
aF0.0
aF0.0
aa(lp642
F189.64500920197145
aF145.1618098757341
aF0.0
aF0.0
aF0.0
aF0.0
aF0.0
aa(lp643
F188.0563550217596
aF147.70517594641362
aF0.0
aF0.0
aF0.0
aF0.0
aF0.0
aa(lp644
F186.80976178691276
aF149.70106457765303
aF0.0
aF0.0
aF0.0
aF0.0
aF0.0
aa(lp645
F185.23480203963925
aF152.25292719431621
aF0.0
aF0.0
aF0.0
aF0.0
aF0.0
aa(lp646
F183.65974233300125
aF154.80478981097943
aF0.0
aF0.0
aF0.0
aF0.0
aF0.0
aa(lp647
F182.44083784212455
aF156.7795870163066
aF0.0
aF0.0
aF0.0
aF0.0
aF0.0
aa(lp648
F180.880072324612
aF159.34014609768244
aF0.0
aF0.0
aF0.0
aF0.0
aF0.0
aa(lp649
F179.3192068477349
aF161.90070517905826
aF0.0
aF0.0
aF0.0
aF0.0
aF0.0
aa(lp650
F178.12969041002515
aF163.85231181181837
aF0.0
aF0.0
aF0.0
aF0.0
aF0.0
aa(lp651
F176.58441859401216
aF166.42226707345847
aF0.0
aF0.0
aF0.0
aF0.0
aF0.0
aa(lp652
F175.03924673736367
aF168.99232229446307
aF0.0
aF0.0
aF0.0
aF0.0
aF0.0
aa(lp653
F173.88101758074663
aF170.91873916736574
aF0.0
aF0.0
aF0.0
aF0.0
aF0.0
aa(lp654
F172.3512394662332
aF173.49809060927015
aF0.0
aF0.0
aF0.0
aF0.0
aF0.0
aa(lp655
F170.82156131108428
aF176.07734209180998
aF0.0
aF0.0
aF0.0
aF0.0
aF0.0
aa(lp656
F169.69591890729862
aF177.9753705051909
aF0.0
aF0.0
aF0.0
aF0.0
aF0.0
aa(lp657
F168.18353372221054
aF180.56491780227563
aF0.0
aF0.0
aF0.0
aF0.0
aF0.0
aa(lp658
F166.671248496487
aF183.15436513999575
aF0.0
aF0.0
aF0.0
aF0.0
aF0.0
aa(lp659
F165.58179138265518
aF185.0198068005453
aF0.0
aF0.0
aF0.0
aF0.0
aF0.0
aa(lp660
F164.087298923815
aF187.61964991217494
aF0.0
aF0.0
aF0.0
aF0.0
aF0.0
aa(lp661
F162.5929064243394
aF190.21949302380457
aF0.0
aF0.0
aF0.0
aF0.0
aF0.0
aa(lp662
F161.540334316013
aF192.05074858169047
aF0.0
aF0.0
aF0.0
aF0.0
aF0.0
aa(lp663
F160.0643343396078
aF194.661087426594
aF0.0
aF0.0
aF0.0
aF0.0
aF0.0
aa(lp664
F158.58843432256714
aF197.27162619022653
aF0.0
aF0.0
aF0.0
aF0.0
aF0.0
aa(lp665
F157.57544612258812
aF199.06319788040054
aF0.0
aF0.0
aF0.0
aF0.0
aF0.0
aa(lp666
F156.11943801908558
aF201.6847321741296
aF0.0
aF0.0
aF0.0
aF0.0
aF0.0
aa(lp667
F154.66352987494759
aF204.30636642722317
aF0.0
aF0.0
aF0.0
aF0.0
aF0.0
aa(lp668
F153.69172493314807
aF206.0560551436661
aF0.0
aF0.0
aF0.0
aF0.0
aF0.0
aa(lp669
F152.25670829619338
aF208.68908476431417
aF0.0
aF0.0
aF0.0
aF0.0
aF0.0
aa(lp670
F150.8216916592387
aF211.32231430369131
aF0.0
aF0.0
aF0.0
aF0.0
aF0.0
aa(lp671
F149.89346900036702
aF213.025421956271
aF0.0
aF0.0
aF0.0
aF0.0
aF0.0
aa(lp672
F148.48004358614725
aF215.67024678193167
aF0.0
aF0.0
aF0.0
aF0.0
aF0.0
aa(lp673
F147.0667181312919
aF218.3150716075923
aF0.0
aF0.0
aF0.0
aF0.0
aF0.0
aa(lp674
F146.18347718645134
aF219.96769978109268
aF0.0
aF0.0
aF0.0
aF0.0
aF0.0
aa(lp675
F144.7928425073406
aF222.62461968985946
aF0.0
aF0.0
aF0.0
aF0.0
aF0.0
aa(lp676
F143.40220782822985
aF225.28143963926175
aF0.0
aF0.0
aF0.0
aF0.0
aF0.0
aa(lp677
F142.5659477847106
aF226.8790901622798
aF0.0
aF0.0
aF0.0
aF0.0
aF0.0
aa(lp678
F141.19910343435402
aF229.54820511351724
aF0.0
aF0.0
aF0.0
aF0.0
aF0.0
aa(lp679
F139.83225908399749
aF232.21742002411915
aF0.0
aF0.0
aF0.0
aF0.0
aF0.0
aa(lp680
F139.04357969798662
aF233.75739399381288
aF0.0
aF0.0
aF0.0
aF0.0
aF0.0
aa(lp681
F137.70162522939387
aF236.43920378434348
aF0.0
aF0.0
aF0.0
aF0.0
aF0.0
aa(lp682
F136.35967076080118
aF239.12091361550966
aF0.0
aF0.0
aF0.0
aF0.0
aF0.0
aa(lp683
F135.62167077259858
aF240.59591399826974
aF0.0
aF0.0
aF0.0
aF0.0
aF0.0
aa(lp684
F134.30550582005037
aF243.29051858745805
aF0.0
aF0.0
aF0.0
aF0.0
aF0.0
aa(lp685
F132.98934086750205
aF245.9850232172819
aF0.0
aF0.0
aF0.0
aF0.0
aF0.0
aa(lp686
F132.3018203583788
aF247.39265098835986
aF0.0
aF0.0
aF0.0
aF0.0
aF0.0
aa(lp687
F131.0122445967911
aF250.10005037620599
aF0.0
aF0.0
aF0.0
aF0.0
aF0.0
aa(lp688
F129.72276879456797
aF252.80734980468753
aF0.0
aF0.0
aF0.0
aF0.0
aF0.0
aa(lp689
F129.08672735816901
aF254.1426069958578
aF0.0
aF0.0
aF0.0
aF0.0
aF0.0
aa(lp690
F127.82464042182255
aF256.8628011823616
aF0.0
aF0.0
aF0.0
aF0.0
aF0.0
aa(lp691
F126.56255348547609
aF259.58309532822983
aF0.0
aF0.0
aF0.0
aF0.0
aF0.0
aa(lp692
F125.97829099989514
aF260.8425833210989
aF0.0
aF0.0
aF0.0
aF0.0
aF0.0
aa(lp693
F124.74479244179952
aF263.575872184354
aF0.0
aF0.0
aF0.0
aF0.0
aF0.0
aa(lp694
F123.51129388370384
aF266.30926100697354
aF0.0
aF0.0
aF0.0
aF0.0
aF0.0
aa(lp695
F122.97980994258597
aF267.48698223967074
aF0.0
aF0.0
aF0.0
aF0.0
aF0.0
aa(lp696
F121.77529960019922
aF270.2332658203125
aF0.0
aF0.0
aF0.0
aF0.0
aF0.0
aa(lp697
F120.57078925781249
aF272.97944944158974
aF0.0
aF0.0
aF0.0
aF0.0
aF0.0
aa(lp698
F120.09048451132551
aF274.0745042798343
aF0.0
aF0.0
aF0.0
aF0.0
aF0.0
aa(lp699
F118.91556214083471
aF276.83358265913375
aF0.0
aF0.0
aF0.0
aF0.0
aF0.0
aa(lp700
F117.74063977034393
aF279.5925610790688
aF0.0
aF0.0
aF0.0
aF0.0
aF0.0
aa(lp701
F117.31221393403942
aF280.5986520828964
aF0.0
aF0.0
aF0.0
aF0.0
aF0.0
aa(lp702
F116.16777916972524
aF283.3704253014891
aF0.0
aF0.0
aF0.0
aF0.0
aF0.0
aa(lp703
F115.02334440541108
aF286.1421985200818
aF0.0
aF0.0
aF0.0
aF0.0
aF0.0
aa(lp704
F114.6452980888213
aF287.0578262990248
aF0.0
aF0.0
aF0.0
aF0.0
aF0.0
aa(lp705
F113.53165080877724
aF289.8421943975461
aF0.0
aF0.0
aF0.0
aF0.0
aF0.0
aa(lp706
F112.41800352873324
aF292.62656249606755
aF0.0
aF0.0
aF0.0
aF0.0
aF0.0
aa(lp707
F111.00647734243918
aF296.245991125734
aF0.0
aF0.0
aF0.0
aF0.0
aF0.0
aa(lp708
F109.92411734348784
aF299.04265422609063
aF0.0
aF0.0
aF0.0
aF0.0
aF0.0
aa(lp709
F109.64243185428901
aF299.77035839974826
aF0.0
aF0.0
aF0.0
aF0.0
aF0.0
aa(lp710
F108.59135913643036
aF302.578916664482
aF0.0
aF0.0
aF0.0
aF0.0
aF0.0
aa(lp711
F107.54038637793624
aF305.3874749292156
aF0.0
aF0.0
aF0.0
aF0.0
aF0.0
aa(lp712
F107.30468219641361
aF306.01711896628564
aF0.0
aF0.0
aF0.0
aF0.0
aF0.0
aa(lp713
F106.28539655647023
aF308.8373724766674
aF0.0
aF0.0
aF0.0
aF0.0
aF0.0
aa(lp714
F105.26601095716234
aF311.6575260276845
aF0.0
aF0.0
aF0.0
aF0.0
aF0.0
aa(lp715
F104.08579074035237
aF315.02085876546766
aF0.0
aF0.0
aF0.0
aF0.0
aF0.0
aa(lp716
F103.0978923408662
aF317.85220776531037
aF0.0
aF0.0
aF0.0
aF0.0
aF0.0
aa(lp717
F101.99074241951553
aF321.12717642486365
aF0.0
aF0.0
aF0.0
aF0.0
aF0.0
aa(lp718
F101.03463109794464
aF323.9694209954383
aF0.0
aF0.0
aF0.0
aF0.0
aF0.0
aa(lp719
F99.99815244730496
aF327.15532586121014
aF0.0
aF0.0
aF0.0
aF0.0
aF0.0
aa(lp720
F99.07372824428481
aF330.00806616505866
aF0.0
aF0.0
aF0.0
aF0.0
aF0.0
aa(lp721
F98.1045222459627
aF333.104307480862
aF0.0
aF0.0
aF0.0
aF0.0
aF0.0
aa(lp722
F97.2110854459417
aF335.96684380243283
aF0.0
aF0.0
aF0.0
aF0.0
aF0.0
aa(lp723
F96.30665311582425
aF338.9730217308096
aF0.0
aF0.0
aF0.0
aF0.0
aF0.0
aa(lp724
F95.43320818870595
aF341.8815393600566
aF0.0
aF0.0
aF0.0
aF0.0
aF0.0
aa(lp725
F94.60114643849622
aF344.7625681640625
aF0.0
aF0.0
aF0.0
aF0.0
aF0.0
aa(lp726
F93.7868774551699
aF347.5821219588926
aF0.0
aF0.0
aF0.0
aF0.0
aF0.0
aa(lp727
F92.98520335177221
aF350.47174726824665
aF0.0
aF0.0
aF0.0
aF0.0
aF0.0
aa(lp728
F92.22711153130243
aF353.2040365378565
aF0.0
aF0.0
aF0.0
aF0.0
aF0.0
aa(lp729
F91.45442564361366
aF356.1015586370071
aF0.0
aF0.0
aF0.0
aF0.0
aF0.0
aa(lp730
F90.74861257078439
aF358.7478828531355
aF0.0
aF0.0
aF0.0
aF0.0
aF0.0
aa(lp731
F90.00541469562708
aF361.6531018233536
aF0.0
aF0.0
aF0.0
aF0.0
aF0.0
aa(lp732
F89.34988118314806
aF364.21526025456166
aF0.0
aF0.0
aF0.0
aF0.0
aF0.0
aa(lp733
F88.63457197069002
aF367.12747638029566
aF0.0
aF0.0
aF0.0
aF0.0
aF0.0
aa(lp734
F88.02591940016777
aF369.6051691484899
aF0.0
aF0.0
aF0.0
aF0.0
aF0.0
aa(lp735
F87.33839889104448
aF372.52408255164636
aF0.0
aF0.0
aF0.0
aF0.0
aF0.0
aa(lp736
F86.77392835963715
aF374.92090819394923
aF0.0
aF0.0
aF0.0
aF0.0
aF0.0
aa(lp737
F87.55571054949667
aF377.8160312683515
aF0.0
aF0.0
aF0.0
aF0.0
aF0.0
aa(lp738
F88.33759269872064
aF380.7110543833893
aF0.0
aF0.0
aF0.0
aF0.0
aF0.0
aa(lp739
F88.69604697986577
aF382.03821486603397
aF0.0
aF0.0
aF0.0
aF0.0
aF0.0
aa(lp740
F89.50221925466653
aF384.9265407036493
aF0.0
aF0.0
aF0.0
aF0.0
aF0.0
aa(lp741
F90.3084914888318
aF387.8148665412647
aF0.0
aF0.0
aF0.0
aF0.0
aF0.0
aa(lp742
F90.68803719588928
aF389.1747137361053
aF0.0
aF0.0
aF0.0
aF0.0
aF0.0
aa(lp743
F91.51909935245388
aF392.0560424182047
aF0.0
aF0.0
aF0.0
aF0.0
aF0.0
aa(lp744
F92.35006154965396
aF394.93737110030406
aF0.0
aF0.0
aF0.0
aF0.0
aF0.0
aa(lp745
F92.75139839817535
aF396.3287054949664
aF0.0
aF0.0
aF0.0
aF0.0
aF0.0
aa(lp746
F93.6088498269715
aF399.20223734663375
aF0.0
aF0.0
aF0.0
aF0.0
aF0.0
aa(lp747
F94.46640121513212
aF402.0757691983011
aF0.0
aF0.0
aF0.0
aF0.0
aF0.0
aa(lp748
F94.89082867685613
aF403.4980909959627
aF0.0
aF0.0
aF0.0
aF0.0
aF0.0
aa(lp749
F95.77486929661285
aF406.36362609846896
aF0.0
aF0.0
aF0.0
aF0.0
aF0.0
aa(lp750
F96.65900987573406
aF409.2291612009752
aF0.0
aF0.0
aF0.0
aF0.0
aF0.0
aa(lp751
F97.10682782875418
aF410.68037125498114
aF0.0
aF0.0
aF0.0
aF0.0
aF0.0
aa(lp752
F98.0192569080327
aF413.5370099740457
aF0.0
aF0.0
aF0.0
aF0.0
aF0.0
aa(lp753
F98.93178594667575
aF416.3935487337458
aF0.0
aF0.0
aF0.0
aF0.0
aF0.0
aa(lp754
F99.40419390336618
aF417.8724475317219
aF0.0
aF0.0
aF0.0
aF0.0
aF0.0
aa(lp755
F100.3456111983536
aF420.7195901111577
aF0.0
aF0.0
aF0.0
aF0.0
aF0.0
aa(lp756
F101.28712845270553
aF423.5668326499581
aF0.0
aF0.0
aF0.0
aF0.0
aF0.0
aa(lp757
F101.78472616925333
aF425.0714210046141
aF0.0
aF0.0
aF0.0
aF0.0
aF0.0
aa(lp758
F102.75603131423026
aF427.9085676475986
aF0.0
aF0.0
aF0.0
aF0.0
aF0.0
aa(lp759
F103.72733645920724
aF430.745714290583
aF0.0
aF0.0
aF0.0
aF0.0
aF0.0
aa(lp760
F104.25092361052853
aF432.2749926082739
aF0.0
aF0.0
aF0.0
aF0.0
aF0.0
aa(lp761
F105.2530162397756
aF435.10144359925545
aF0.0
aF0.0
aF0.0
aF0.0
aF0.0
aa(lp762
F106.25510886902265
aF437.9277946308725
aF0.0
aF0.0
aF0.0
aF0.0
aF0.0
aa(lp763
F106.80448553638843
aF439.47766457765306
aF0.0
aF0.0
aF0.0
aF0.0
aF0.0
aa(lp764
F107.83816532482172
aF442.2926202417156
aF0.0
aF0.0
aF0.0
aF0.0
aF0.0
aa(lp765
F108.871845113255
aF445.1076758651426
aF0.0
aF0.0
aF0.0
aF0.0
aF0.0
aa(lp766
F109.44861064649746
aF446.67833735974205
aF0.0
aF0.0
aF0.0
aF0.0
aF0.0
aa(lp767
F110.51477722839766
aF449.48119794069834
aF0.0
aF0.0
aF0.0
aF0.0
aF0.0
aa(lp768
F111.58104376966236
aF452.2840585216548
aF0.0
aF0.0
aF0.0
aF0.0
aF0.0
aa(lp769
F112.18469837195886
aF453.87081347394087
aF0.0
aF0.0
aF0.0
aF0.0
aF0.0
aa(lp770
F113.28375158478397
aF456.6608792562395
aF0.0
aF0.0
aF0.0
aF0.0
aF0.0
aa(lp771
F114.38280479760905
aF459.45104499790267
aF0.0
aF0.0
aF0.0
aF0.0
aF0.0
aa(lp772
F115.0132485095952
aF461.051494383127
aF0.0
aF0.0
aF0.0
aF0.0
aF0.0
aa(lp773
F116.1457881095323
aF463.8281656105809
aF0.0
aF0.0
aF0.0
aF0.0
aF0.0
aa(lp774
F117.27842766883387
aF466.6047368786702
aF0.0
aF0.0
aF0.0
aF0.0
aF0.0
aa(lp775
F117.93546057178062
aF468.21548207843955
aF0.0
aF0.0
aF0.0
aF0.0
aF0.0
aa(lp776
F119.10208631501678
aF470.97795907613255
aF0.0
aF0.0
aF0.0
aF0.0
aF0.0
aa(lp777
F120.26881201761745
aF473.74053603319
aF0.0
aF0.0
aF0.0
aF0.0
aF0.0
aa(lp778
F120.95263403025376
aF475.35987773830743
aF0.0
aF0.0
aF0.0
aF0.0
aF0.0
aa(lp779
F122.15384571361153
aF478.10756075005247
aF0.0
aF0.0
aF0.0
aF0.0
aF0.0
aa(lp780
F123.35495743760487
aF480.85524376179734
aF0.0
aF0.0
aF0.0
aF0.0
aF0.0
aa(lp781
F124.06436904755662
aF482.47808404467287
aF0.0
aF0.0
aF0.0
aF0.0
aF0.0
aa(lp782
F125.30006671167155
aF485.2104732736472
aF0.0
aF0.0
aF0.0
aF0.0
aF0.0
aa(lp783
F126.53566441642198
aF487.9428625026216
aF0.0
aF0.0
aF0.0
aF0.0
aF0.0
aa(lp784
F127.27006586750213
aF489.5667023791422
aF0.0
aF0.0
aF0.0
aF0.0
aF0.0
aa(lp785
F128.54064934983222
aF492.28299815042993
aF0.0
aF0.0
aF0.0
aF0.0
aF0.0
aa(lp786
F129.81133279152687
aF494.9992939217177
aF0.0
aF0.0
aF0.0
aF0.0
aF0.0
aa(lp787
F130.56932465263213
aF496.61983513920933
aF0.0
aF0.0
aF0.0
aF0.0
aF0.0
aa(lp788
F131.8747939531774
aF499.31953765598786
aF0.0
aF0.0
aF0.0
aF0.0
aF0.0
aa(lp789
F133.18016329435818
aF502.0192401727664
aF0.0
aF0.0
aF0.0
aF0.0
aF0.0
aa(lp790
F133.96084593120804
aF503.6336838690226
aF0.0
aF0.0
aF0.0
aF0.0
aF0.0
aa(lp791
F135.30050133441694
aF506.3166931719274
aF0.0
aF0.0
aF0.0
aF0.0
aF0.0
aa(lp792
F136.64015673762583
aF508.9996025154677
aF0.0
aF0.0
aF0.0
aF0.0
aF0.0
aa(lp793
F137.4414310035654
aF510.60435015336617
aF0.0
aF0.0
aF0.0
aF0.0
aF0.0
aa(lp794
F138.81557238753146
aF513.2697666081167
aF0.0
aF0.0
aF0.0
aF0.0
aF0.0
aa(lp795
F140.18971377149745
aF515.935183062867
aF0.0
aF0.0
aF0.0
aF0.0
aF0.0
aa(lp796
F141.01068003224623
aF517.5275357395658
aF0.0
aF0.0
aF0.0
aF0.0
aF0.0
aa(lp797
F142.41870764078226
aF520.1752593867973
aF0.0
aF0.0
aF0.0
aF0.0
aF0.0
aa(lp798
F143.8267352493184
aF522.8228830746646
aF0.0
aF0.0
aF0.0
aF0.0
aF0.0
aa(lp799
F144.66459464266984
aF524.398442578125
aF0.0
aF0.0
aF0.0
aF0.0
aF0.0
aa(lp800
F146.1059087195889
aF527.0281735397441
aF0.0
aF0.0
aF0.0
aF0.0
aF0.0
aa(lp801
F147.54722279650798
aF529.6578045419988
aF0.0
aF0.0
aF0.0
aF0.0
aF0.0
aa(lp802
F148.40007609453653
aF531.2139719287436
aF0.0
aF0.0
aF0.0
aF0.0
aF0.0
aa(lp803
F149.87407688365147
aF533.8255102860214
aF0.0
aF0.0
aF0.0
aF0.0
aF0.0
aa(lp804
F151.3480776727663
aF536.4369486839346
aF0.0
aF0.0
aF0.0
aF0.0
aF0.0
aa(lp805
F152.21382572881708
aF537.9708251323931
aF0.0
aF0.0
aF0.0
aF0.0
aF0.0
aa(lp806
F153.72001343330533
aF540.5638710072358
aF0.0
aF0.0
aF0.0
aF0.0
aF0.0
aa(lp807
F155.22620113779362
aF543.157016841443
aF0.0
aF0.0
aF0.0
aF0.0
aF0.0
aa(lp808
F156.1033445613989
aF544.6670030017826
aF0.0
aF0.0
aF0.0
aF0.0
aF0.0
aa(lp809
F157.64051966888633
aF547.2418562722839
aF0.0
aF0.0
aF0.0
aF0.0
aF0.0
aa(lp810
F159.1775948170092
aF549.8167095427852
aF0.0
aF0.0
aF0.0
aF0.0
aF0.0
aa(lp811
F160.06253507104657
aF551.2990069591547
aF0.0
aF0.0
aF0.0
aF0.0
aF0.0
aa(lp812
F161.62999786598152
aF553.855367747221
aF0.0
aF0.0
aF0.0
aF0.0
aF0.0
aa(lp813
F163.19756062028102
aF556.4118284946518
aF0.0
aF0.0
aF0.0
aF0.0
aF0.0
aa(lp814
F164.08839847682464
aF557.8645379391254
aF0.0
aF0.0
aF0.0
aF0.0
aF0.0
aa(lp815
F165.68494944683306
aF560.4030060009438
aF0.0
aF0.0
aF0.0
aF0.0
aF0.0
aa(lp816
F167.28140045747693
aF562.9414740627622
aF0.0
aF0.0
aF0.0
aF0.0
aF0.0
aa(lp817
F168.1760367698721
aF564.3638958197881
aF0.0
aF0.0
aF0.0
aF0.0
aF0.0
aa(lp818
F169.80107615876676
aF566.8841712772651
aF0.0
aF0.0
aF0.0
aF0.0
aF0.0
aa(lp819
F171.42611554766148
aF569.404446734742
aF0.0
aF0.0
aF0.0
aF0.0
aF0.0
aa(lp820
F172.3223512098889
aF570.7943816983012
aF0.0
aF0.0
aF0.0
aF0.0
aF0.0
aa(lp821
F173.97467950529568
aF573.2969643482593
aF0.0
aF0.0
aF0.0
aF0.0
aF0.0
aa(lp822
F175.62690784133804
aF575.7994470388528
aF0.0
aF0.0
aF0.0
aF0.0
aF0.0
aa(lp823
F176.52274366610737
aF577.1561954933934
aF0.0
aF0.0
aF0.0
aF0.0
aF0.0
aa(lp824
F178.20106139628774
aF579.6412852545617
aF0.0
aF0.0
aF0.0
aF0.0
aF0.0
aa(lp825
F179.8794790858326
aF582.1263750157299
aF0.0
aF0.0
aF0.0
aF0.0
aF0.0
aa(lp826
F180.77241608903103
aF583.4485375301489
aF0.0
aF0.0
aF0.0
aF0.0
aF0.0
aa(lp827
F182.47582361970422
aF585.9165342399853
aF0.0
aF0.0
aF0.0
aF0.0
aF0.0
aa(lp828
F184.17913119101297
aF588.3845309498216
aF0.0
aF0.0
aF0.0
aF0.0
aF0.0
aa(lp829
F185.0675700228083
aF589.6717076866611
aF0.0
aF0.0
aF0.0
aF0.0
aF0.0
aa(lp830
F186.7955675571518
aF592.1226113451658
aF0.0
aF0.0
aF0.0
aF0.0
aF0.0
aa(lp831
F188.52356509149536
aF594.5734150443058
aF0.0
aF0.0
aF0.0
aF0.0
aF0.0
aa(lp832
F189.4057064833263
aF595.8247063692847
aF0.0
aF0.0
aF0.0
aF0.0
aF0.0
aa(lp833
F191.1562948340499
aF598.2595165701027
aF0.0
aF0.0
aF0.0
aF0.0
aF0.0
aa(lp834
F192.90678322540896
aF600.6943267709208
aF0.0
aF0.0
aF0.0
aF0.0
aF0.0
aa(lp835
F193.78032811189178
aF601.9093328465814
aF0.0
aF0.0
aF0.0
aF0.0
aF0.0
aa(lp836
F195.5530074821728
aF604.3280495897127
aF0.0
aF0.0
aF0.0
aF0.0
aF0.0
aa(lp837
F197.32568685245383
aF606.746766332844
aF0.0
aF0.0
aF0.0
aF0.0
aF0.0
aa(lp838
F198.18973559930782
aF607.9255871185507
aF0.0
aF0.0
aF0.0
aF0.0
aF0.0
aa(lp839
F199.98320651740767
aF610.3289101195469
aF0.0
aF0.0
aF0.0
aF0.0
aF0.0
aa(lp840
F201.77667743550757
aF612.7322331205432
aF0.0
aF0.0
aF0.0
aF0.0
aF0.0
aa(lp841
F202.62943077417157
aF613.8748686162961
aF0.0
aF0.0
aF0.0
aF0.0
aF0.0
aa(lp842
F204.44299352453856
aF616.2630977532507
aF0.0
aF0.0
aF0.0
aF0.0
aF0.0
aa(lp843
F206.2566562342701
aF618.651226930841
aF0.0
aF0.0
aF0.0
aF0.0
aF0.0
aa(lp844
F207.09681469300546
aF619.7575771772755
aF0.0
aF0.0
aF0.0
aF0.0
aF0.0
aa(lp845
F209.8316029467282
aF620.9877770763424
aF0.0
aF0.0
aF0.0
aF0.0
aF0.0
aa(lp846
F212.060596816013
aF621.9904694617763
aF0.0
aF0.0
aF0.0
aF0.0
aF0.0
aa(lp847
F214.80678043729029
aF623.1949798041632
aF0.0
aF0.0
aF0.0
aF0.0
aF0.0
aa(lp848
F217.1273370844694
aF624.2127660536388
aF0.0
aF0.0
aF0.0
aF0.0
aF0.0
aa(lp849
F219.88531591075923
aF625.3901874082425
aF0.0
aF0.0
aF0.0
aF0.0
aF0.0
aa(lp850
F222.30133375104867
aF626.4215681312919
aF0.0
aF0.0
aF0.0
aF0.0
aF0.0
aa(lp851
F225.07080790425755
aF627.5719004981123
aF0.0
aF0.0
aF0.0
aF0.0
aF0.0
aa(lp852
F227.5848858811346
aF628.6160760198196
aF0.0
aF0.0
aF0.0
aF0.0
aF0.0
aa(lp853
F230.36585536126256
aF629.7380199271182
aF0.0
aF0.0
aF0.0
aF0.0
aF0.0
aa(lp854
F232.98009262138214
aF630.7927911414639
aF0.0
aF0.0
aF0.0
aF0.0
aF0.0
aa(lp855
F235.77265738779363
aF631.8857468330536
aF0.0
aF0.0
aF0.0
aF0.0
aF0.0
aa(lp856
F238.4913521838297
aF632.950014187028
aF0.0
aF0.0
aF0.0
aF0.0
aF0.0
aa(lp857
F241.29531231779572
aF634.0132819473574
aF0.0
aF0.0
aF0.0
aF0.0
aF0.0
aa(lp858
F244.11986408085147
aF635.0843465381188
aF0.0
aF0.0
aF0.0
aF0.0
aF0.0
aa(lp859
F246.93501966364306
aF636.1175265297295
aF0.0
aF0.0
aF0.0
aF0.0
aF0.0
aa(lp860
F249.75017524643454
aF637.1507065213402
aF0.0
aF0.0
aF0.0
aF0.0
aF0.0
aa(lp861
F252.69477820627094
aF638.1968812303377
aF0.0
aF0.0
aF0.0
aF0.0
aF0.0
aa(lp862
F255.52102927852343
aF639.1995736157719
aF0.0
aF0.0
aF0.0
aF0.0
aF0.0
aa(lp863
F258.5760873361472
aF640.2481473495176
aF0.0
aF0.0
aF0.0
aF0.0
aF0.0
aa(lp864
F261.41323397913175
aF641.2194524944945
aF0.0
aF0.0
aF0.0
aF0.0
aF0.0
aa(lp865
F261.73300398621006
aF641.3290079580012
aF0.0
aF0.0
aF0.0
aF0.0
aF0.0
aa(lp866
F264.58064636246854
aF642.2688259031563
aF0.0
aF0.0
aF0.0
aF0.0
aF0.0
aa(lp867
F267.42838869809145
aF643.2087438076761
aF0.0
aF0.0
aF0.0
aF0.0
aF0.0
aa(lp868
F267.8509169318896
aF643.3481871211723
aF0.0
aF0.0
aF0.0
aF0.0
aF0.0
aa(lp869
F270.7089550820574
aF644.2559181103187
aF0.0
aF0.0
aF0.0
aF0.0
aF0.0
aa(lp870
F273.5670931915897
aF645.1637490588297
aF0.0
aF0.0
aF0.0
aF0.0
aF0.0
aa(lp871
F276.96251288538167
aF646.2074247837143
aF0.0
aF0.0
aF0.0
aF0.0
aF0.0
aa(lp872
F279.8304470126363
aF647.0835686136744
aF0.0
aF0.0
aF0.0
aF0.0
aF0.0
aa(lp873
F283.3416196505348
aF648.1209468985948
aF0.0
aF0.0
aF0.0
aF0.0
aF0.0
aa(lp874
F286.2191498767827
aF648.9648038538171
aF0.0
aF0.0
aF0.0
aF0.0
aF0.0
aa(lp875
F286.95734978371433
aF649.1813158373532
aF0.0
aF0.0
aF0.0
aF0.0
aF0.0
aa(lp876
F289.84407627149744
aF649.9932857552957
aF0.0
aF0.0
aF0.0
aF0.0
aF0.0
aa(lp877
F292.7309027186451
aF650.8052556732382
aF0.0
aF0.0
aF0.0
aF0.0
aF0.0
aa(lp878
F293.5744597957739
aF651.0424592452285
aF0.0
aF0.0
aF0.0
aF0.0
aF0.0
aa(lp879
F296.47008266699874
aF651.8223422071623
aF0.0
aF0.0
aF0.0
aF0.0
aF0.0
aa(lp880
F299.36570553822355
aF652.6022251690961
aF0.0
aF0.0
aF0.0
aF0.0
aF0.0
aa(lp881
F300.31411998872693
aF652.8576213454278
aF0.0
aF0.0
aF0.0
aF0.0
aF0.0
aa(lp882
F303.21793952784185
aF653.6061170669043
aF0.0
aF0.0
aF0.0
aF0.0
aF0.0
aa(lp883
F306.1218590263213
aF654.3545128290162
aF0.0
aF0.0
aF0.0
aF0.0
aF0.0
aa(lp884
F307.17303170354444
aF654.6255026662122
aF0.0
aF0.0
aF0.0
aF0.0
aF0.0
aa(lp885
F310.0848479918205
aF655.3426111472315
aF0.0
aF0.0
aF0.0
aF0.0
aF0.0
aa(lp886
F312.99666428009647
aF656.0596196688863
aF0.0
aF0.0
aF0.0
aF0.0
aF0.0
aa(lp887
F314.14999542785233
aF656.3436042234689
aF0.0
aF0.0
aF0.0
aF0.0
aF0.0
aa(lp888
F317.0691087497378
aF657.0302250983117
aF0.0
aF0.0
aF0.0
aF0.0
aF0.0
aa(lp889
F319.9882220716233
aF657.7167460137898
aF0.0
aF0.0
aF0.0
aF0.0
aF0.0
aa(lp890
F321.24051299024745
aF658.0112263016464
aF0.0
aF0.0
aF0.0
aF0.0
aF0.0
aa(lp891
F324.1665235082844
aF658.667459529677
aF0.0
aF0.0
aF0.0
aF0.0
aF0.0
aa(lp892
F327.0926339856858
aF659.3236927577076
aF0.0
aF0.0
aF0.0
aF0.0
aF0.0
aa(lp893
F328.4410858129719
aF659.6261697947252
aF0.0
aF0.0
aF0.0
aF0.0
aF0.0
aa(lp894
F331.3737936084312
aF660.2525151727663
aF0.0
aF0.0
aF0.0
aF0.0
aF0.0
aa(lp895
F334.306401444526
aF660.878960510172
aF0.0
aF0.0
aF0.0
aF0.0
aF0.0
aa(lp896
F335.7474156433515
aF661.1867353935088
aF0.0
aF0.0
aF0.0
aF0.0
aF0.0
aa(lp897
F338.6859210819526
aF661.7846923120281
aF0.0
aF0.0
aF0.0
aF0.0
aF0.0
aa(lp898
F341.6245264799182
aF662.3825492711828
aF0.0
aF0.0
aF0.0
aF0.0
aF0.0
aa(lp899
F343.1563037817219
aF662.6942225697358
aF0.0
aF0.0
aF0.0
aF0.0
aF0.0
aa(lp900
F346.1004069447357
aF663.2640909068267
aF0.0
aF0.0
aF0.0
aF0.0
aF0.0
aa(lp901
F349.0446100671141
aF663.8338592845532
aF0.0
aF0.0
aF0.0
aF0.0
aF0.0
aa(lp902
F350.6606531132026
aF664.1466321361157
aF0.0
aF0.0
aF0.0
aF0.0
aF0.0
aa(lp903
F353.60995416317115
aF664.6893115260591
aF0.0
aF0.0
aF0.0
aF0.0
aF0.0
aa(lp904
F356.55915525377515
aF665.2319909160025
aF0.0
aF0.0
aF0.0
aF0.0
aF0.0
aa(lp905
F358.2581645724098
aF665.5446638082004
aF0.0
aF0.0
aF0.0
aF0.0
aF0.0
aa(lp906
F361.21206375314597
aF666.0613537633703
aF0.0
aF0.0
aF0.0
aF0.0
aF0.0
aa(lp907
F364.16606289324665
aF666.5781436779048
aF0.0
aF0.0
aF0.0
aF0.0
aF0.0
aa(lp908
F365.9406414914534
aF666.8886174640835
aF0.0
aF0.0
aF0.0
aF0.0
aF0.0
aa(lp909
F368.8989388842282
aF667.3796178625732
aF0.0
aF0.0
aF0.0
aF0.0
aF0.0
aa(lp910
F371.8572362770029
aF667.8707182204278
aF0.0
aF0.0
aF0.0
aF0.0
aF0.0
aa(lp911
F373.7047852113045
aF668.177393550755
aF0.0
aF0.0
aF0.0
aF0.0
aF0.0
aa(lp912
F376.6669810192953
aF668.6444037017617
aF0.0
aF0.0
aF0.0
aF0.0
aF0.0
aa(lp913
F379.6290768679215
aF669.1114138527685
aF0.0
aF0.0
aF0.0
aF0.0
aF0.0
aa(lp914
F381.5455977637373
aF669.4135910116925
aF0.0
aF0.0
aF0.0
aF0.0
aF0.0
aa(lp915
F384.5113921088507
aF669.8573106307675
aF0.0
aF0.0
aF0.0
aF0.0
aF0.0
aa(lp916
F387.47708649459946
aF670.3011302092073
aF0.0
aF0.0
aF0.0
aF0.0
aF0.0
aa(lp917
F389.4564818306942
aF670.5972098468959
aF0.0
aF0.0
aF0.0
aF0.0
aF0.0
aa(lp918
F392.4255748348363
aF671.0188384464135
aF0.0
aF0.0
aF0.0
aF0.0
aF0.0
aa(lp919
F395.394567879614
aF671.4403670865667
aF0.0
aF0.0
aF0.0
aF0.0
aF0.0
aa(lp920
F397.4342387125105
aF671.7300493249265
aF0.0
aF0.0
aF0.0
aF0.0
aF0.0
aa(lp921
F400.4061305788589
aF672.1301866610738
aF0.0
aF0.0
aF0.0
aF0.0
aF0.0
aa(lp922
F403.3781224045721
aF672.530323997221
aF0.0
aF0.0
aF0.0
aF0.0
aF0.0
aa(lp923
F405.47297080668
aF672.8124093238779
aF0.0
aF0.0
aF0.0
aF0.0
aF0.0
aa(lp924
F408.4475615758704
aF673.192254909029
aF0.0
aF0.0
aF0.0
aF0.0
aF0.0
aa(lp925
F411.4221523450608
aF673.57210049418
aF0.0
aF0.0
aF0.0
aF0.0
aF0.0
aa(lp926
F413.5677801043414
aF673.8460891123111
aF0.0
aF0.0
aF0.0
aF0.0
aF0.0
aa(lp927
F416.54476989828015
aF674.2065425807466
aF0.0
aF0.0
aF0.0
aF0.0
aF0.0
aa(lp928
F419.52185965158344
aF674.5669960491821
aF0.0
aF0.0
aF0.0
aF0.0
aF0.0
aa(lp929
F421.71546790583056
aF674.8325880806941
aF0.0
aF0.0
aF0.0
aF0.0
aF0.0
aa(lp930
F424.69465680578855
aF675.1745490666946
aF0.0
aF0.0
aF0.0
aF0.0
aF0.0
aa(lp931
F427.6739456651111
aF675.5164100933306
aF0.0
aF0.0
aF0.0
aF0.0
aF0.0
aa(lp932
F429.9104364867344
aF675.773105741401
aF0.0
aF0.0
aF0.0
aF0.0
aF0.0
aa(lp933
F432.8915246146182
aF676.0977737573406
aF0.0
aF0.0
aF0.0
aF0.0
aF0.0
aa(lp934
F435.8727127018667
aF676.4224417732801
aF0.0
aF0.0
aF0.0
aF0.0
aF0.0
aa(lp935
F438.1493871880243
aF676.670440956638
aF0.0
aF0.0
aF0.0
aF0.0
aF0.0
aa(lp936
F441.132374543834
aF676.9782158399748
aF0.0
aF0.0
aF0.0
aF0.0
aF0.0
aa(lp937
F444.1153618996434
aF677.285890763947
aF0.0
aF0.0
aF0.0
aF0.0
aF0.0
aa(lp938
F446.4288214319422
aF677.5245937264052
aF0.0
aF0.0
aF0.0
aF0.0
aF0.0
aa(lp939
F449.41330817821927
aF677.8166749895133
aF0.0
aF0.0
aF0.0
aF0.0
aF0.0
aa(lp940
F452.39779492449657
aF678.1088562119861
aF0.0
aF0.0
aF0.0
aF0.0
aF0.0
aa(lp941
F454.74544055945887
aF678.3386627910025
aF0.0
aF0.0
aF0.0
aF0.0
aF0.0
aa(lp942
F456.91525848495166
aF676.2687042706585
aF0.0
aF0.0
aF0.0
aF0.0
aF0.0
aa(lp943
F458.2130309144295
aF675.0306075817954
aF0.0
aF0.0
aF0.0
aF0.0
aF0.0
aa(lp944
F460.3825489618288
aF672.9605491020868
aF0.0
aF0.0
aF0.0
aF0.0
aF0.0
aa(lp945
F461.64603532927845
aF671.7549392066904
aF0.0
aF0.0
aF0.0
aF0.0
aF0.0
aa(lp946
F463.81585325477135
aF669.685080645711
aF0.0
aF0.0
aF0.0
aF0.0
aF0.0
aa(lp947
F465.0467528693896
aF668.5109579501362
aF0.0
aF0.0
aF0.0
aF0.0
aF0.0
aa(lp948
F467.216270916789
aF666.4406995516987
aF0.0
aF0.0
aF0.0
aF0.0
aF0.0
aa(lp949
F468.4146837379403
aF665.2970644623007
aF0.0
aF0.0
aF0.0
aF0.0
aF0.0
aa(lp950
F470.58430174470425
aF663.2270059825923
aF0.0
aF0.0
aF0.0
aF0.0
aF0.0
aa(lp951
F471.74962801620177
aF662.115058011745
aF0.0
aF0.0
aF0.0
aF0.0
aF0.0
aa(lp952
F473.9195459010591
aF660.0451994507654
aF0.0
aF0.0
aF0.0
aF0.0
aF0.0
aa(lp953
F475.0536848508284
aF658.9632392892722
aF0.0
aF0.0
aF0.0
aF0.0
aF0.0
aa(lp954
F477.2232028982278
aF656.8930808501992
aF0.0
aF0.0
aF0.0
aF0.0
aF0.0
aa(lp955
F478.3255547700817
aF655.8412084574245
aF0.0
aF0.0
aF0.0
aF0.0
aF0.0
aa(lp956
F480.4953726955746
aF653.771349896445
aF0.0
aF0.0
aF0.0
aF0.0
aF0.0
aa(lp957
F481.56743687998096
aF652.7487655974727
aF0.0
aF0.0
aF0.0
aF0.0
aF0.0
aa(lp958
F483.73695492738045
aF650.6786071583998
aF0.0
aF0.0
aF0.0
aF0.0
aF0.0
aa(lp959
F484.77883138370385
aF649.6845112783138
aF0.0
aF0.0
aF0.0
aF0.0
aF0.0
aa(lp960
F486.9483494311031
aF647.6143528392407
aF0.0
aF0.0
aF0.0
aF0.0
aF0.0
aa(lp961
F487.9593384437919
aF646.6496450123217
aF0.0
aF0.0
aF0.0
aF0.0
aF0.0
aa(lp962
F490.1291563692847
aF644.5797864513422
aF0.0
aF0.0
aF0.0
aF0.0
aF0.0
aa(lp963
F491.1111571662648
aF643.6429672871225
aF0.0
aF0.0
aF0.0
aF0.0
aF0.0
aa(lp964
F493.2806752136639
aF641.5728088480495
aF0.0
aF0.0
aF0.0
aF0.0
aF0.0
aa(lp965
F494.23288812001886
aF640.664278183987
aF0.0
aF0.0
aF0.0
aF0.0
aF0.0
aa(lp966
F496.4028060048762
aF638.5944196230075
aF0.0
aF0.0
aF0.0
aF0.0
aF0.0
aa(lp967
F497.3268303704383
aF637.7129779467282
aF0.0
aF0.0
aF0.0
aF0.0
aF0.0
aa(lp968
F499.496248458473
aF635.6427195482906
aF0.0
aF0.0
aF0.0
aF0.0
aF0.0
aa(lp969
F500.39218424260685
aF634.7878670629718
aF0.0
aF0.0
aF0.0
aF0.0
aF0.0
aa(lp970
F502.5618022493709
aF632.717708623899
aF0.0
aF0.0
aF0.0
aF0.0
aF0.0
aa(lp971
F503.42884977716017
aF631.8903449638212
aF0.0
aF0.0
aF0.0
aF0.0
aF0.0
aa(lp972
F505.5986677026531
aF629.8204864028418
aF0.0
aF0.0
aF0.0
aF0.0
aF0.0
aa(lp973
F506.4387262020239
aF629.0192121369022
aF0.0
aF0.0
aF0.0
aF0.0
aF0.0
aa(lp974
F508.6083442087877
aF626.9490536978293
aF0.0
aF0.0
aF0.0
aF0.0
aF0.0
aa(lp975
F509.42061400482385
aF626.1740687447567
aF0.0
aF0.0
aF0.0
aF0.0
aF0.0
aa(lp976
F511.5903319709521
aF624.1041102244127
aF0.0
aF0.0
aF0.0
aF0.0
aF0.0
aa(lp977
F512.3763124541213
aF623.3544149905621
aF0.0
aF0.0
aF0.0
aF0.0
aF0.0
aa(lp978
F514.5458305015204
aF621.284256551489
aF0.0
aF0.0
aF0.0
aF0.0
aF0.0
aa(lp979
F517.4751396785864
aF618.4891928009647
aF0.0
aF0.0
aF0.0
aF0.0
aF0.0
aa(lp980
F518.2078418204698
aF617.7900770055578
aF0.0
aF0.0
aF0.0
aF0.0
aF0.0
aa(lp981
F520.3776597459627
aF615.7201184852139
aF0.0
aF0.0
aF0.0
aF0.0
aF0.0
aa(lp982
F521.085072168624
aF615.0451928560193
aF0.0
aF0.0
aF0.0
aF0.0
aF0.0
aa(lp983
F523.2546901753879
aF612.9750344169463
aF0.0
aF0.0
aF0.0
aF0.0
aF0.0
aa(lp984
F523.936113163276
aF612.3247987507864
aF0.0
aF0.0
aF0.0
aF0.0
aF0.0
aa(lp985
F526.1060310481334
aF610.254940189807
aF0.0
aF0.0
aF0.0
aF0.0
aF0.0
aa(lp986
F526.7628640323511
aF609.6283948930369
aF0.0
aF0.0
aF0.0
aF0.0
aF0.0
aa(lp987
F528.9324820391149
aF607.5582364539639
aF0.0
aF0.0
aF0.0
aF0.0
aF0.0
aa(lp988
F529.5648249790269
aF606.9548817297608
aF0.0
aF0.0
aF0.0
aF0.0
aF0.0
aa(lp989
F531.7343430264261
aF604.8846233313233
aF0.0
aF0.0
aF0.0
aF0.0
aF0.0
aa(lp990
F532.3413962471161
aF604.3052588546036
aF0.0
aF0.0
aF0.0
aF0.0
aF0.0
aa(lp991
F534.5113141319736
aF602.2354002936241
aF0.0
aF0.0
aF0.0
aF0.0
aF0.0
aa(lp992
F537.2643949494022
aF599.608768072305
aF0.0
aF0.0
aF0.0
aF0.0
aF0.0
aa(lp993
F537.8234676751258
aF599.0751849845323
aF0.0
aF0.0
aF0.0
aF0.0
aF0.0
aa(lp994
F539.9932856006187
aF597.0053264235528
aF0.0
aF0.0
aF0.0
aF0.0
aF0.0
aa(lp995
F540.5293676725041
aF596.4939343147021
aF0.0
aF0.0
aF0.0
aF0.0
aF0.0
aa(lp996
F542.311743101143
aF594.0823146864512
aF0.0
aF0.0
aF0.0
aF0.0
aF0.0
aa(lp997
F544.0942184891464
aF591.670795017565
aF0.0
aF0.0
aF0.0
aF0.0
aF0.0
aa(lp998
F544.7971327404048
aF590.7195817048552
aF0.0
aF0.0
aF0.0
aF0.0
aF0.0
aa(lp999
F546.5770091849307
aF588.3060628486787
aF0.0
aF0.0
aF0.0
aF0.0
aF0.0
aa(lp1000
F548.3567856700922
aF585.892543992502
aF0.0
aF0.0
aF0.0
aF0.0
aF0.0
aa(lp1001
F549.0550018312185
aF584.9458288511954
aF0.0
aF0.0
aF0.0
aF0.0
aF0.0
aa(lp1002
F550.8320794135382
aF582.5303108077286
aF0.0
aF0.0
aF0.0
aF0.0
aF0.0
aa(lp1003
F552.6092569552222
aF580.1148927236263
aF0.0
aF0.0
aF0.0
aF0.0
aF0.0
aa(lp1004
F553.3023751887583
aF579.1728756724517
aF0.0
aF0.0
aF0.0
aF0.0
aF0.0
aa(lp1005
F555.0762540714136
aF576.7549586042365
aF0.0
aF0.0
aF0.0
aF0.0
aF0.0
aa(lp1006
F556.8502329134332
aF574.3372414547503
aF0.0
aF0.0
aF0.0
aF0.0
aF0.0
aa(lp1007
F557.5376534631921
aF573.4003223311661
aF0.0
aF0.0
aF0.0
aF0.0
aF0.0
aa(lp1008
F559.3089334023698
aF570.9806059943896
aF0.0
aF0.0
aF0.0
aF0.0
aF0.0
aa(lp1009
F561.0803133009123
aF568.5608896576132
aF0.0
aF0.0
aF0.0
aF0.0
aF0.0
aa(lp1010
F561.7618362481649
aF567.6298681365353
aF0.0
aF0.0
aF0.0
aF0.0
aF0.0
aa(lp1011
F563.5297175689492
aF565.2076528156459
aF0.0
aF0.0
aF0.0
aF0.0
aF0.0
aa(lp1012
F565.2975988897336
aF562.7853375353922
aF0.0
aF0.0
aF0.0
aF0.0
aF0.0
aa(lp1013
F565.9712250471896
aF561.8624127228397
aF0.0
aF0.0
aF0.0
aF0.0
aF0.0
aa(lp1014
F567.7355078308515
aF559.4375984584732
aF0.0
aF0.0
aF0.0
aF0.0
aF0.0
aa(lp1015
F569.4998905738779
aF557.0127841941064
aF0.0
aF0.0
aF0.0
aF0.0
aF0.0
aa(lp1016
F570.1660197789954
aF556.0971564151636
aF0.0
aF0.0
aF0.0
aF0.0
aF0.0
aa(lp1017
F571.9271038629929
aF553.6699431260486
aF0.0
aF0.0
aF0.0
aF0.0
aF0.0
aa(lp1018
F573.6881879469903
aF551.2428297962982
aF0.0
aF0.0
aF0.0
aF0.0
aF0.0
aa(lp1019
F574.3453208093015
aF550.3370979944422
aF0.0
aF0.0
aF0.0
aF0.0
aF0.0
aa(lp1020
F576.102706396812
aF547.9071858024852
aF0.0
aF0.0
aF0.0
aF0.0
aF0.0
aa(lp1021
F577.859992024958
aF545.4772736105284
aF0.0
aF0.0
aF0.0
aF0.0
aF0.0
aa(lp1022
F578.5076287476404
aF544.5816377044882
aF0.0
aF0.0
aF0.0
aF0.0
aF0.0
aa(lp1023
F580.2608160418414
aF542.148726731596
aF0.0
aF0.0
aF0.0
aF0.0
aF0.0
aa(lp1024
F582.0140033360424
aF539.7158157587039
aF0.0
aF0.0
aF0.0
aF0.0
aF0.0
aa(lp1025
F582.6510443660864
aF538.8317751389473
aF0.0
aF0.0
aF0.0
aF0.0
aF0.0
aa(lp1026
F584.4003332450712
aF536.3960653038484
aF0.0
aF0.0
aF0.0
aF0.0
aF0.0
aa(lp1027
F586.1496221240562
aF533.96035546875
aF0.0
aF0.0
aF0.0
aF0.0
aF0.0
aa(lp1028
F586.7753677459102
aF533.089109647651
aF0.0
aF0.0
aF0.0
aF0.0
aF0.0
aa(lp1029
F588.5204583315856
aF530.6504010316171
aF0.0
aF0.0
aF0.0
aF0.0
aF0.0
aa(lp1030
F590.2655489172608
aF528.211692415583
aF0.0
aF0.0
aF0.0
aF0.0
aF0.0
aa(lp1031
F590.8788995779151
aF527.3547407836095
aF0.0
aF0.0
aF0.0
aF0.0
aF0.0
aa(lp1032
F592.6195919515519
aF524.9129334272754
aF0.0
aF0.0
aF0.0
aF0.0
aF0.0
aa(lp1033
F594.3603842845533
aF522.4711260709416
aF0.0
aF0.0
aF0.0
aF0.0
aF0.0
aa(lp1034
F594.9612400246434
aF521.6283686687291
aF0.0
aF0.0
aF0.0
aF0.0
aF0.0
aa(lp1035
F596.6973342675126
aF519.1831626940018
aF0.0
aF0.0
aF0.0
aF0.0
aF0.0
aa(lp1036
F598.4333285510172
aF516.7380566786387
aF0.0
aF0.0
aF0.0
aF0.0
aF0.0
aa(lp1037
F599.0189904677013
aF515.9131920026739
aF0.0
aF0.0
aF0.0
aF0.0
aF0.0
aa(lp1038
F600.7502866610737
aF513.4646873689178
aF0.0
aF0.0
aF0.0
aF0.0
aF0.0
aa(lp1039
F602.4816828138108
aF511.0161827351614
aF0.0
aF0.0
aF0.0
aF0.0
aF0.0
aa(lp1040
F603.0524507851824
aF510.2089109073511
aF0.0
aF0.0
aF0.0
aF0.0
aF0.0
aa(lp1041
F604.7790488884227
aF507.75700765520133
aF0.0
aF0.0
aF0.0
aF0.0
aF0.0
aa(lp1042
F606.5056469916632
aF505.305204362416
aF0.0
aF0.0
aF0.0
aF0.0
aF0.0
aa(lp1043
F608.7820215997273
aF502.0618228620491
aF0.0
aF0.0
aF0.0
aF0.0
aF0.0
aa(lp1044
F610.5035217753775
aF499.6064210321413
aF0.0
aF0.0
aF0.0
aF0.0
aF0.0
aa(lp1045
F611.0422027907404
aF498.8381333564912
aF0.0
aF0.0
aF0.0
aF0.0
aF0.0
aa(lp1046
F612.7585050794357
aF496.37913298946097
aF0.0
aF0.0
aF0.0
aF0.0
aF0.0
aa(lp1047
F614.4748073681312
aF493.92013262243074
aF0.0
aF0.0
aF0.0
aF0.0
aF0.0
aa(lp1048
F614.9953957385171
aF493.17433580379617
aF0.0
aF0.0
aF0.0
aF0.0
aF0.0
aa(lp1049
F616.7067000589869
aF490.71173689964337
aF0.0
aF0.0
aF0.0
aF0.0
aF0.0
aa(lp1050
F618.4179044200922
aF488.2492379548553
aF0.0
aF0.0
aF0.0
aF0.0
aF0.0
aa(lp1051
F618.9216996172398
aF487.5243326434039
aF0.0
aF0.0
aF0.0
aF0.0
aF0.0
aa(lp1052
F620.628005969484
aF485.0582351614932
aF0.0
aF0.0
aF0.0
aF0.0
aF0.0
aa(lp1053
F622.3342123623637
aF482.5922376389471
aF0.0
aF0.0
aF0.0
aF0.0
aF0.0
aa(lp1054
F622.8192151989828
aF481.8912226156145
aF0.0
aF0.0
aF0.0
aF0.0
aF0.0
aa(lp1055
F624.5199238268142
aF479.4213266778524
aF0.0
aF0.0
aF0.0
aF0.0
aF0.0
aa(lp1056
F626.2206324546456
aF476.9514307400902
aF0.0
aF0.0
aF0.0
aF0.0
aF0.0
aa(lp1057
F626.6874426869232
aF476.2735063299601
aF0.0
aF0.0
aF0.0
aF0.0
aF0.0
aa(lp1058
F628.3826535497063
aF473.799911895711
aF0.0
aF0.0
aF0.0
aF0.0
aF0.0
aa(lp1059
F630.077964371854
aF471.32631746146177
aF0.0
aF0.0
aF0.0
aF0.0
aF0.0
aa(lp1060
F630.5267819185192
aF470.67158362389887
aF0.0
aF0.0
aF0.0
aF0.0
aF0.0
aa(lp1061
F632.2166949349831
aF468.1942906931627
aF0.0
aF0.0
aF0.0
aF0.0
aF0.0
aa(lp1062
F633.9066079514471
aF465.7169977624266
aF0.0
aF0.0
aF0.0
aF0.0
aF0.0
aa(lp1063
F634.3375327718645
aF465.0853545380662
aF0.0
aF0.0
aF0.0
aF0.0
aF0.0
aa(lp1064
F636.0221479420092
aF462.6044630702076
aF0.0
aF0.0
aF0.0
aF0.0
aF0.0
aa(lp1065
F637.7067631121539
aF460.123571602349
aF0.0
aF0.0
aF0.0
aF0.0
aF0.0
aa(lp1066
F639.7986127333263
aF457.0312287017617
aF0.0
aF0.0
aF0.0
aF0.0
aF0.0
aa(lp1067
F641.4777301384228
aF454.54663873741606
aF0.0
aF0.0
aF0.0
aF0.0
aF0.0
aa(lp1068
F641.8735692218959
aF453.96087686136747
aF0.0
aF0.0
aF0.0
aF0.0
aF0.0
aa(lp1069
F643.5475886994022
aF451.4728882786283
aF0.0
aF0.0
aF0.0
aF0.0
aF0.0
aa(lp1070
F645.221708136273
aF448.98479973652474
aF0.0
aF0.0
aF0.0
aF0.0
aF0.0
aa(lp1071
F645.6012538433305
aF448.42072904257543
aF0.0
aF0.0
aF0.0
aF0.0
aF0.0
aa(lp1072
F647.2697755557886
aF445.9290419633494
aF0.0
aF0.0
aF0.0
aF0.0
aF0.0
aa(lp1073
F648.9383972276112
aF443.43735488412335
aF0.0
aF0.0
aF0.0
aF0.0
aF0.0
aa(lp1074
F650.9653732212143
aF440.39899004037335
aF0.0
aF0.0
aF0.0
aF0.0
aF0.0
aa(lp1075
F652.6285970873531
aF437.9038043833893
aF0.0
aF0.0
aF0.0
aF0.0
aF0.0
aa(lp1076
F652.9775552288695
aF437.38021723206793
aF0.0
aF0.0
aF0.0
aF0.0
aF0.0
aa(lp1077
F654.6359810455117
aF434.8816329566904
aF0.0
aF0.0
aF0.0
aF0.0
aF0.0
aa(lp1078
F656.2943069027893
aF432.38314864067746
aF0.0
aF0.0
aF0.0
aF0.0
aF0.0
aa(lp1079
F656.6295706113674
aF431.8780539717911
aF0.0
aF0.0
aF0.0
aF0.0
aF0.0
aa(lp1080
F658.282798541055
aF429.37627099674916
aF0.0
aF0.0
aF0.0
aF0.0
aF0.0
aa(lp1081
F659.9362263894715
aF426.87438806234263
aF0.0
aF0.0
aF0.0
aF0.0
aF0.0
aa(lp1082
F660.2593950149434
aF426.38538685114304
aF0.0
aF0.0
aF0.0
aF0.0
aF0.0
aa(lp1083
F661.9079248544987
aF423.8804051764366
aF0.0
aF0.0
aF0.0
aF0.0
aF0.0
aa(lp1084
F663.5563547346895
aF421.3753235423657
aF0.0
aF0.0
aF0.0
aF0.0
aF0.0
aa(lp1085
F665.5114599452075
aF418.3934357395658
aF0.0
aF0.0
aF0.0
aF0.0
aF0.0
aa(lp1086
F667.1549918165373
aF415.8851554058305
aF0.0
aF0.0
aF0.0
aF0.0
aF0.0
aa(lp1087
F667.4566691786389
aF415.42464261351716
aF0.0
aF0.0
aF0.0
aF0.0
aF0.0
aa(lp1088
F669.0959027972945
aF412.91356341757546
aF0.0
aF0.0
aF0.0
aF0.0
aF0.0
aa(lp1089
F670.73513641595
aF410.40248422163376
aF0.0
aF0.0
aF0.0
aF0.0
aF0.0
aa(lp1090
F672.6631526386849
aF407.43798934825924
aF0.0
aF0.0
aF0.0
aF0.0
aF0.0
aa(lp1091
F674.2974882484793
aF404.92371145265304
aF0.0
aF0.0
aF0.0
aF0.0
aF0.0
aa(lp1092
F674.5842716652684
aF404.4823908583263
aF0.0
aF0.0
aF0.0
aF0.0
aF0.0
aa(lp1093
F676.2147088598468
aF401.96561397860734
aF0.0
aF0.0
aF0.0
aF0.0
aF0.0
aa(lp1094
F677.8451460544253
aF399.44883709888836
aF0.0
aF0.0
aF0.0
aF0.0
aF0.0
aaa(lp1095
(lp1096
F608.2316453387164
aF453.2983461933724
aF0.0
aF0.0
aF0.0
aF0.0
aF0.0
aa(lp1097
F606.7109635263738
aF450.6259325831061
aF0.0
aF0.0
aF0.0
aF0.0
aF0.0
aa(lp1098
F605.0724296232696
aF448.11435359034186
aF0.0
aF0.0
aF0.0
aF0.0
aF0.0
aa(lp1099
F603.5495487049076
aF445.7800025508599
aF0.0
aF0.0
aF0.0
aF0.0
aF0.0
aa(lp1100
F601.924509316013
aF443.2596271340185
aF0.0
aF0.0
aF0.0
aF0.0
aF0.0
aa(lp1101
F600.2994699271183
aF440.7393516765415
aF0.0
aF0.0
aF0.0
aF0.0
aF0.0
aa(lp1102
F598.7576966888632
aF438.34812375865147
aF0.0
aF0.0
aF0.0
aF0.0
aF0.0
aa(lp1103
F597.1464516922714
aF435.8189519177327
aF0.0
aF0.0
aF0.0
aF0.0
aF0.0
aa(lp1104
F595.5352066956796
aF433.28988003617866
aF0.0
aF0.0
aF0.0
aF0.0
aF0.0
aa(lp1105
F593.9758406092701
aF430.8419751586095
aF0.0
aF0.0
aF0.0
aF0.0
aF0.0
aa(lp1106
F592.3789897611682
aF428.3037070155201
aF0.0
aF0.0
aF0.0
aF0.0
aF0.0
aa(lp1107
F590.7821389130662
aF425.7654388724308
aF0.0
aF0.0
aF0.0
aF0.0
aF0.0
aa(lp1108
F589.2068792876992
aF423.26145679136954
aF0.0
aF0.0
aF0.0
aF0.0
aF0.0
aa(lp1109
F587.6253222223678
aF420.7136925086514
aF0.0
aF0.0
aF0.0
aF0.0
aF0.0
aa(lp1110
F586.043665197672
aF418.1659282259333
aF0.0
aF0.0
aF0.0
aF0.0
aF0.0
aa(lp1111
F584.4545112206374
aF415.606068860109
aF0.0
aF0.0
aF0.0
aF0.0
aF0.0
aa(lp1112
F582.8889476536283
aF413.0483086409396
aF0.0
aF0.0
aF0.0
aF0.0
aF0.0
aa(lp1113
F581.3234840459836
aF410.49054842177014
aF0.0
aF0.0
aF0.0
aF0.0
aF0.0
aa(lp1114
F579.7225348639366
aF407.8749117305474
aF0.0
aF0.0
aF0.0
aF0.0
aF0.0
aa(lp1115
F578.1730647546141
aF405.3075554123846
aF0.0
aF0.0
aF0.0
aF0.0
aF0.0
aa(lp1116
F576.623494685927
aF402.74009913485736
aF0.0
aF0.0
aF0.0
aF0.0
aF0.0
aa(lp1117
F575.0740245766044
aF400.1726428573301
aF0.0
aF0.0
aF0.0
aF0.0
aF0.0
aa(lp1118
F573.4800725500734
aF397.49283225408976
aF0.0
aF0.0
aF0.0
aF0.0
aF0.0
aa(lp1119
F571.9478954108116
aF394.9149802026531
aF0.0
aF0.0
aF0.0
aF0.0
aF0.0
aa(lp1120
F570.4157182715498
aF392.33722811058095
aF0.0
aF0.0
aF0.0
aF0.0
aF0.0
aa(lp1121
F568.8152688863254
aF389.60563855652265
aF0.0
aF0.0
aF0.0
aF0.0
aF0.0
aa(lp1122
F567.3003847171246
aF387.0175906499056
aF0.0
aF0.0
aF0.0
aF0.0
aF0.0
aa(lp1123
F565.7854005885591
aF384.4296427026531
aF0.0
aF0.0
aF0.0
aF0.0
aF0.0
aa(lp1124
F564.1811527474832
aF381.6468739539639
aF0.0
aF0.0
aF0.0
aF0.0
aF0.0
aa(lp1125
F562.6846611013527
aF379.0482303547085
aF0.0
aF0.0
aF0.0
aF0.0
aF0.0
aa(lp1126
F561.1880694958577
aF376.449586755453
aF0.0
aF0.0
aF0.0
aF0.0
aF0.0
aa(lp1127
F559.5820223862206
aF373.6184376743393
aF0.0
aF0.0
aF0.0
aF0.0
aF0.0
aa(lp1128
F558.1037233444315
aF371.0093983011745
aF0.0
aF0.0
aF0.0
aF0.0
aF0.0
aa(lp1129
F556.625524262007
aF368.4002589686451
aF0.0
aF0.0
aF0.0
aF0.0
aF0.0
aa(lp1130
F556.479483630453
aF368.1425637269295
aF0.0
aF0.0
aF0.0
aF0.0
aF0.0
aa(lp1131
F555.0205767053797
aF365.5225288236682
aF0.0
aF0.0
aF0.0
aF0.0
aF0.0
aa(lp1132
F553.5616697803061
aF362.90249392040687
aF0.0
aF0.0
aF0.0
aF0.0
aF0.0
aa(lp1133
F552.1027628552329
aF360.28255897651
aF0.0
aF0.0
aF0.0
aF0.0
aF0.0
aa(lp1134
F550.5026133481019
aF357.3626459797084
aF0.0
aF0.0
aF0.0
aF0.0
aF0.0
aa(lp1135
F549.0632984584731
aF354.7318154650797
aF0.0
aF0.0
aF0.0
aF0.0
aF0.0
aa(lp1136
F547.6240835282088
aF352.1009849504509
aF0.0
aF0.0
aF0.0
aF0.0
aF0.0
aa(lp1137
F547.4503541526844
aF351.78371392748534
aF0.0
aF0.0
aF0.0
aF0.0
aF0.0
aa(lp1138
F546.0313310140521
aF349.1419878421246
aF0.0
aF0.0
aF0.0
aF0.0
aF0.0
aa(lp1139
F544.6122079160549
aF346.5001617973993
aF0.0
aF0.0
aF0.0
aF0.0
aF0.0
aa(lp1140
F543.1930848180579
aF343.85843571203856
aF0.0
aF0.0
aF0.0
aF0.0
aF0.0
aa(lp1141
F541.6106281184459
aF340.8627535169358
aF0.0
aF0.0
aF0.0
aF0.0
aF0.0
aa(lp1142
F540.2122965682676
aF338.2099319421141
aF0.0
aF0.0
aF0.0
aF0.0
aF0.0
aa(lp1143
F538.8138650587248
aF335.55711036729235
aF0.0
aF0.0
aF0.0
aF0.0
aF0.0
aa(lp1144
F538.6232425505978
aF335.19535742711827
aF0.0
aF0.0
aF0.0
aF0.0
aF0.0
aa(lp1145
F537.2454026701446
aF332.5317402409291
aF0.0
aF0.0
aF0.0
aF0.0
aF0.0
aa(lp1146
F535.8676627490562
aF329.86822301410444
aF0.0
aF0.0
aF0.0
aF0.0
aF0.0
aa(lp1147
F534.4899228279678
aF327.20470578727975
aF0.0
aF0.0
aF0.0
aF0.0
aF0.0
aa(lp1148
F532.9375538970742
aF324.15234663249794
aF0.0
aF0.0
aF0.0
aF0.0
aF0.0
aa(lp1149
F531.580705483169
aF321.4780337943057
aF0.0
aF0.0
aF0.0
aF0.0
aF0.0
aa(lp1150
F530.2238570692639
aF318.8038209154781
aF0.0
aF0.0
aF0.0
aF0.0
aF0.0
aa(lp1151
F530.0265372837143
aF318.41487902815646
aF0.0
aF0.0
aF0.0
aF0.0
aF0.0
aa(lp1152
F528.6910801738151
aF315.72987053796135
aF0.0
aF0.0
aF0.0
aF0.0
aF0.0
aa(lp1153
F527.3557230232801
aF313.0448620477663
aF0.0
aF0.0
aF0.0
aF0.0
aF0.0
aa(lp1154
F526.0202659133809
aF310.35985355757134
aF0.0
aF0.0
aF0.0
aF0.0
aF0.0
aa(lp1155
F524.509879915583
aF307.2692099661808
aF0.0
aF0.0
aF0.0
aF0.0
aF0.0
aa(lp1156
F523.1960140284186
aF304.5735058239828
aF0.0
aF0.0
aF0.0
aF0.0
aF0.0
aa(lp1157
F521.8821481412542
aF301.8779016411493
aF0.0
aF0.0
aF0.0
aF0.0
aF0.0
aa(lp1158
F521.6895264458367
aF301.4826623138633
aF0.0
aF0.0
aF0.0
aF0.0
aF0.0
aa(lp1159
F520.3969519033137
aF298.7767623164849
aF0.0
aF0.0
aF0.0
aF0.0
aF0.0
aa(lp1160
F519.1042774014262
aF296.07086231910654
aF0.0
aF0.0
aF0.0
aF0.0
aF0.0
aa(lp1161
F517.811702858903
aF293.36496232172817
aF0.0
aF0.0
aF0.0
aF0.0
aF0.0
aa(lp1162
F516.3536955681103
aF290.25712571964135
aF0.0
aF0.0
aF0.0
aF0.0
aF0.0
aa(lp1163
F515.0827122483221
aF287.54102986708267
aF0.0
aF0.0
aF0.0
aF0.0
aF0.0
aa(lp1164
F513.8116289691695
aF284.82493401452393
aF0.0
aF0.0
aF0.0
aF0.0
aF0.0
aa(lp1165
F513.6329016254194
aF284.4428893233536
aF0.0
aF0.0
aF0.0
aF0.0
aF0.0
aa(lp1166
F512.3829097721791
aF281.71709741243706
aF0.0
aF0.0
aF0.0
aF0.0
aF0.0
aa(lp1167
F511.1329179189388
aF278.991205542156
aF0.0
aF0.0
aF0.0
aF0.0
aF0.0
aa(lp1168
F509.8828261063338
aF276.2654136312395
aF0.0
aF0.0
aF0.0
aF0.0
aF0.0
aa(lp1169
F508.48599394662324
aF273.16237507864935
aF0.0
aF0.0
aF0.0
aF0.0
aF0.0
aa(lp1170
F507.2575933161178
aF270.4266871906459
aF0.0
aF0.0
aF0.0
aF0.0
aF0.0
aa(lp1171
F506.0291926856123
aF267.6909993026426
aF0.0
aF0.0
aF0.0
aF0.0
aF0.0
aa(lp1172
F505.87335603633596
aF267.343940389052
aF0.0
aF0.0
aF0.0
aF0.0
aF0.0
aa(lp1173
F504.6654470755558
aF264.59915619887795
aF0.0
aF0.0
aF0.0
aF0.0
aF0.0
aa(lp1174
F503.4575381147755
aF261.8543720087039
aF0.0
aF0.0
aF0.0
aF0.0
aF0.0
aa(lp1175
F502.24962915399533
aF259.10958781852975
aF0.0
aF0.0
aF0.0
aF0.0
aF0.0
aa(lp1176
F500.92016960596686
aF256.0320389038905
aF0.0
aF0.0
aF0.0
aF0.0
aF0.0
aa(lp1177
F499.7332521117344
aF253.27815841154572
aF0.0
aF0.0
aF0.0
aF0.0
aF0.0
aa(lp1178
F498.54623465813756
aF250.52427791920093
aF0.0
aF0.0
aF0.0
aF0.0
aF0.0
aa(lp1179
F498.4192862652054
aF250.22989759070887
aF0.0
aF0.0
aF0.0
aF0.0
aF0.0
aa(lp1180
F497.25266052196935
aF247.46732063365138
aF0.0
aF0.0
aF0.0
aF0.0
aF0.0
aa(lp1181
F496.0859348193686
aF244.70484363595844
aF0.0
aF0.0
aF0.0
aF0.0
aF0.0
aa(lp1182
F494.91930907613244
aF241.942266678901
aF0.0
aF0.0
aF0.0
aF0.0
aF0.0
aa(lp1183
F493.6621201486471
aF238.91009931575084
aF0.0
aF0.0
aF0.0
aF0.0
aF0.0
aa(lp1184
F492.5152863595847
aF236.1392257314388
aF0.0
aF0.0
aF0.0
aF0.0
aF0.0
aa(lp1185
F491.3683526111578
aF233.36845210649116
aF0.0
aF0.0
aF0.0
aF0.0
aF0.0
aa(lp1186
F490.1479487298134
aF230.3649730809564
aF0.0
aF0.0
aF0.0
aF0.0
aF0.0
aa(lp1187
F489.0205070574665
aF227.58620270684776
aF0.0
aF0.0
aF0.0
aF0.0
aF0.0
aa(lp1188
F487.8930653851196
aF224.80743233273913
aF0.0
aF0.0
aF0.0
aF0.0
aF0.0
aa(lp1189
F486.7100463061032
aF221.8378395317743
aF0.0
aF0.0
aF0.0
aF0.0
aF0.0
aa(lp1190
F485.6012970349203
aF219.0514722459626
aF0.0
aF0.0
aF0.0
aF0.0
aF0.0
aa(lp1191
F484.492647723102
aF216.26520491951553
aF0.0
aF0.0
aF0.0
aF0.0
aF0.0
aa(lp1192
F483.3464136902264
aF213.32979822121436
aF0.0
aF0.0
aF0.0
aF0.0
aF0.0
aa(lp1193
F482.25655673893664
aF210.53603394242873
aF0.0
aF0.0
aF0.0
aF0.0
aF0.0
aa(lp1194
F481.16669978764673
aF207.74236962300756
aF0.0
aF0.0
aF0.0
aF0.0
aF0.0
aa(lp1195
F480.0578505570994
aF204.8476463860634
aF0.0
aF0.0
aF0.0
aF0.0
aF0.0
aa(lp1196
F478.9857863726929
aF202.04708487049072
aF0.0
aF0.0
aF0.0
aF0.0
aF0.0
aa(lp1197
F477.8960293807677
aF199.20064200660653
aF0.0
aF0.0
aF0.0
aF0.0
aF0.0
aa(lp1198
F476.84115820705745
aF196.39348317297606
aF0.0
aF0.0
aF0.0
aF0.0
aF0.0
aa(lp1199
F475.78638699271187
aF193.5863243393457
aF0.0
aF0.0
aF0.0
aF0.0
aF0.0
aa(lp1200
F474.73321512819837
aF190.7837636364828
aF0.0
aF0.0
aF0.0
aF0.0
aF0.0
aa(lp1201
F473.69543700581994
aF187.97020740352346
aF0.0
aF0.0
aF0.0
aF0.0
aF0.0
aa(lp1202
F472.6576588834416
aF185.15675112992864
aF0.0
aF0.0
aF0.0
aF0.0
aF0.0
aa(lp1203
F471.64067230888213
aF182.39957197855495
aF0.0
aF0.0
aF0.0
aF0.0
aF0.0
aa(lp1204
F470.6185878067324
aF179.5803180618184
aF0.0
aF0.0
aF0.0
aF0.0
aF0.0
aa(lp1205
F469.5965033045826
aF176.76116410444627
aF0.0
aF0.0
aF0.0
aF0.0
aF0.0
aa(lp1206
F468.6150023044253
aF174.05386467596472
aF0.0
aF0.0
aF0.0
aF0.0
aF0.0
aa(lp1207
F467.6091112193267
aF171.2289130754509
aF0.0
aF0.0
aF0.0
aF0.0
aF0.0
aa(lp1208
F466.60312017486365
aF168.40386151557254
aF0.0
aF0.0
aF0.0
aF0.0
aF0.0
aa(lp1209
F465.656205114828
aF165.744442622693
aF0.0
aF0.0
aF0.0
aF0.0
aF0.0
aa(lp1210
F464.66510801567745
aF162.9141931758599
aF0.0
aF0.0
aF0.0
aF0.0
aF0.0
aa(lp1211
F463.61443513527684
aF157.28488160392192
aF0.0
aF0.0
aF0.0
aF0.0
aF0.0
aaa(lp1212
(lp1213
F454.74544055945887
aF678.3386627910025
aF0.0
aF0.0
aF0.0
aF0.0
aF0.0
aa(lp1214
F456.3043068490458
aF675.7769041972524
aF0.0
aF0.0
aF0.0
aF0.0
aF0.0
aa(lp1215
F457.56339500445677
aF673.7079452705536
aF0.0
aF0.0
aF0.0
aF0.0
aF0.0
aa(lp1216
F459.12955832765317
aF671.1506848482067
aF0.0
aF0.0
aF0.0
aF0.0
aF0.0
aa(lp1217
F460.4545197042785
aF668.9873642814073
aF0.0
aF0.0
aF0.0
aF0.0
aF0.0
aa(lp1218
F462.02778014235514
aF666.4344021117344
aF0.0
aF0.0
aF0.0
aF0.0
aF0.0
aa(lp1219
F463.4224131960466
aF664.1715220178795
aF0.0
aF0.0
aF0.0
aF0.0
aF0.0
aa(lp1220
F465.0026707896393
aF661.6229580602453
aF0.0
aF0.0
aF0.0
aF0.0
aF0.0
aa(lp1221
F466.468075073406
aF659.25951884569
aF0.0
aF0.0
aF0.0
aF0.0
aF0.0
aa(lp1222
F468.0561294974307
aF656.7157529375525
aF0.0
aF0.0
aF0.0
aF0.0
aF0.0
aa(lp1223
F469.59530379220837
aF654.2501552524643
aF0.0
aF0.0
aF0.0
aF0.0
aF0.0
aa(lp1224
F471.19075520920705
aF651.7109874750943
aF0.0
aF0.0
aF0.0
aF0.0
aF0.0
aa(lp1225
F472.80579866165056
aF649.1405324166317
aF0.0
aF0.0
aF0.0
aF0.0
aF0.0
aa(lp1226
F474.4082472341652
aF646.6057628513003
aF0.0
aF0.0
aF0.0
aF0.0
aF0.0
aa(lp1227
F476.01079576604434
aF644.0710932453335
aF0.0
aF0.0
aF0.0
aF0.0
aF0.0
aa(lp1228
F477.71190423133385
aF641.3983797569734
aF0.0
aF0.0
aF0.0
aF0.0
aF0.0
aa(lp1229
F479.3225494717386
aF638.8689080379613
aF0.0
aF0.0
aF0.0
aF0.0
aF0.0
aa(lp1230
F481.10392530673244
aF636.0871388829173
aF0.0
aF0.0
aF0.0
aF0.0
aF0.0
aa(lp1231
F482.7216676620176
aF633.5621653353082
aF0.0
aF0.0
aF0.0
aF0.0
aF0.0
aa(lp1232
F482.9593710308304
aF633.1913160929635
aF0.0
aF0.0
aF0.0
aF0.0
aF0.0
aa(lp1233
F484.58461033845424
aF630.6712405542155
aF0.0
aF0.0
aF0.0
aF0.0
aF0.0
aa(lp1234
F486.2099496054425
aF628.1511650154678
aF0.0
aF0.0
aF0.0
aF0.0
aF0.0
aa(lp1235
F486.5243218068373
aF627.6638631134647
aF0.0
aF0.0
aF0.0
aF0.0
aF0.0
aa(lp1236
F488.15715802616387
aF625.1485856242134
aF0.0
aF0.0
aF0.0
aF0.0
aF0.0
aa(lp1237
F489.78989428612624
aF622.6333081349621
aF0.0
aF0.0
aF0.0
aF0.0
aF0.0
aa(lp1238
F490.1817349950188
aF622.0299534107593
aF0.0
aF0.0
aF0.0
aF0.0
aF0.0
aa(lp1239
F491.8219682073196
aF619.5194739710046
aF0.0
aF0.0
aF0.0
aF0.0
aF0.0
aa(lp1240
F493.4623013789849
aF617.0090944906145
aF0.0
aF0.0
aF0.0
aF0.0
aF0.0
aa(lp1241
F493.9329100671141
aF616.2888872692952
aF0.0
aF0.0
aF0.0
aF0.0
aF0.0
aa(lp1242
F495.5809401098469
aF613.7836057164953
aF0.0
aF0.0
aF0.0
aF0.0
aF0.0
aa(lp1243
F497.2290701119441
aF611.2783241636954
aF0.0
aF0.0
aF0.0
aF0.0
aF0.0
aa(lp1244
F497.77954633231957
aF610.4415643233535
aF0.0
aF0.0
aF0.0
aF0.0
aF0.0
aa(lp1245
F499.43467348993283
aF607.9408809013212
aF0.0
aF0.0
aF0.0
aF0.0
aF0.0
aa(lp1246
F501.0898006475461
aF605.4401974792889
aF0.0
aF0.0
aF0.0
aF0.0
aF0.0
aa(lp1247
F501.7192447658872
aF604.4891840853082
aF0.0
aF0.0
aF0.0
aF0.0
aF0.0
aa(lp1248
F503.382068794568
aF601.9935985908662
aF0.0
aF0.0
aF0.0
aF0.0
aF0.0
aa(lp1249
F505.0448928232487
aF599.4981130557885
aF0.0
aF0.0
aF0.0
aF0.0
aF0.0
aa(lp1250
F505.75520406748115
aF598.4320464332528
aF0.0
aF0.0
aF0.0
aF0.0
aF0.0
aa(lp1251
F507.4250252516779
aF595.9410590695784
aF0.0
aF0.0
aF0.0
aF0.0
aF0.0
aa(lp1252
F509.09474647650995
aF593.4501716652685
aF0.0
aF0.0
aF0.0
aF0.0
aF0.0
aa(lp1253
F509.88402561870794
aF592.2726503513004
aF0.0
aF0.0
aF0.0
aF0.0
aF0.0
aa(lp1254
F511.5608439584207
aF589.786560996487
aF0.0
aF0.0
aF0.0
aF0.0
aF0.0
aa(lp1255
F513.2377622574979
aF587.3004716416737
aF0.0
aF0.0
aF0.0
aF0.0
aF0.0
aa(lp1256
F514.1062092163904
aF586.0127951080118
aF0.0
aF0.0
aF0.0
aF0.0
aF0.0
aa(lp1257
F515.7896248741611
aF583.531103965237
aF0.0
aF0.0
aF0.0
aF0.0
aF0.0
aa(lp1258
F517.4730405319316
aF581.0494128224622
aF0.0
aF0.0
aF0.0
aF0.0
aF0.0
aa(lp1259
F518.4191559170511
aF579.6546798094064
aF0.0
aF0.0
aF0.0
aF0.0
aF0.0
aa(lp1260
F520.1096686897021
aF577.1777867161284
aF0.0
aF0.0
aF0.0
aF0.0
aF0.0
aa(lp1261
F521.8002814217177
aF574.7008936228501
aF0.0
aF0.0
aF0.0
aF0.0
aF0.0
aa(lp1262
F522.8222659645029
aF573.2035023424392
aF0.0
aF0.0
aF0.0
aF0.0
aF0.0
aa(lp1263
F524.5192760958473
aF570.7311074205643
aF0.0
aF0.0
aF0.0
aF0.0
aF0.0
aa(lp1264
F526.2163861865561
aF568.2587124986891
aF0.0
aF0.0
aF0.0
aF0.0
aF0.0
aa(lp1265
F527.3128404559038
aF566.6612618944002
aF0.0
aF0.0
aF0.0
aF0.0
aF0.0
aa(lp1266
F529.0161480272127
aF564.1930652658347
aF0.0
aF0.0
aF0.0
aF0.0
aF0.0
aa(lp1267
F530.7194555985213
aF561.7249685966337
aF0.0
aF0.0
aF0.0
aF0.0
aF0.0
aa(lp1268
F531.8876806915897
aF560.0320567992344
aF0.0
aF0.0
aF0.0
aF0.0
aF0.0
aa(lp1269
F533.5968858654048
aF557.5680584639786
aF0.0
aF0.0
aF0.0
aF0.0
aF0.0
aa(lp1270
F535.3058911204907
aF555.1039601693583
aF0.0
aF0.0
aF0.0
aF0.0
aF0.0
aa(lp1271
F536.5432880938024
aF553.3200853502516
aF0.0
aF0.0
aF0.0
aF0.0
aF0.0
aa(lp1272
F538.2586907482173
aF550.8602853083053
aF0.0
aF0.0
aF0.0
aF0.0
aF0.0
aa(lp1273
F539.9739934432677
aF548.4005852257236
aF0.0
aF0.0
aF0.0
aF0.0
aF0.0
aa(lp1274
F541.2788629876259
aF546.5294458813968
aF0.0
aF0.0
aF0.0
aF0.0
aF0.0
aa(lp1275
F542.999763407089
aF544.073644214031
aF0.0
aF0.0
aF0.0
aF0.0
aF0.0
aa(lp1276
F544.7207637859166
aF541.6178425466653
aF0.0
aF0.0
aF0.0
aF0.0
aF0.0
aa(lp1277
F546.0889076080118
aF539.6654362389891
aF0.0
aF0.0
aF0.0
aF0.0
aF0.0
aa(lp1278
F547.8154057518875
aF537.2135329868393
aF0.0
aF0.0
aF0.0
aF0.0
aF0.0
aa(lp1279
F549.5419038957634
aF534.7616297346897
aF0.0
aF0.0
aF0.0
aF0.0
aF0.0
aa(lp1280
F550.9704231740247
aF532.7329544318897
aF0.0
aF0.0
aF0.0
aF0.0
aF0.0
aa(lp1281
F552.7022191642197
aF530.2848496355914
aF0.0
aF0.0
aF0.0
aF0.0
aF0.0
aa(lp1282
F554.4341151137794
aF527.8367448392931
aF0.0
aF0.0
aF0.0
aF0.0
aF0.0
aa(lp1283
F555.920510864094
aF525.7354990378565
aF0.0
aF0.0
aF0.0
aF0.0
aF0.0
aa(lp1284
F557.6569049850566
aF523.2905929412227
aF0.0
aF0.0
aF0.0
aF0.0
aF0.0
aa(lp1285
F559.3931991466548
aF520.8455868852244
aF0.0
aF0.0
aF0.0
aF0.0
aF0.0
aa(lp1286
F560.933273075713
aF518.6769684721057
aF0.0
aF0.0
aF0.0
aF0.0
aF0.0
aa(lp1287
F562.6747651242658
aF516.2356609125943
aF0.0
aF0.0
aF0.0
aF0.0
aF0.0
aa(lp1288
F564.4160572540898
aF513.7942533937185
aF0.0
aF0.0
aF0.0
aF0.0
aF0.0
aa(lp1289
F566.0070104996854
aF511.56386009333056
aF0.0
aF0.0
aF0.0
aF0.0
aF0.0
aa(lp1290
F567.7528008009123
aF509.12565127411915
aF0.0
aF0.0
aF0.0
aF0.0
aF0.0
aa(lp1291
F569.4984911427747
aF506.68734249554313
aF0.0
aF0.0
aF0.0
aF0.0
aF0.0
aa(lp1292
F571.1366252084207
aF504.3992726418309
aF0.0
aF0.0
aF0.0
aF0.0
aF0.0
aa(lp1293
F572.8871135997797
aF501.9643624816485
aF0.0
aF0.0
aF0.0
aF0.0
aF0.0
aa(lp1294
F574.6375020317744
aF499.52945232146595
aF0.0
aF0.0
aF0.0
aF0.0
aF0.0
aa(lp1295
F576.3208177301804
aF497.1880041671036
aF0.0
aF0.0
aF0.0
aF0.0
aF0.0
aa(lp1296
F578.0751045773909
aF494.75579290976293
aF0.0
aF0.0
aF0.0
aF0.0
aF0.0
aa(lp1297
F579.829291465237
aF492.3236816117869
aF0.0
aF0.0
aF0.0
aF0.0
aF0.0
aa(lp1298
F581.5531906656355
aF489.9337531656354
aF0.0
aF0.0
aF0.0
aF0.0
aF0.0
aa(lp1299
F583.3114758874266
aF487.5044407298658
aF0.0
aF0.0
aF0.0
aF0.0
aF0.0
aa(lp1300
F585.0697611092178
aF485.07522825346047
aF0.0
aF0.0
aF0.0
aF0.0
aF0.0
aa(lp1301
F586.8327444211409
aF482.639518418362
aF0.0
aF0.0
aF0.0
aF0.0
aF0.0
aa(lp1302
F588.5947281394191
aF480.21300484479866
aF0.0
aF0.0
aF0.0
aF0.0
aF0.0
aa(lp1303
F590.3568118170616
aF477.7864912712353
aF0.0
aF0.0
aF0.0
aF0.0
aF0.0
aa(lp1304
F592.1551807440226
aF475.3099980154153
aF0.0
aF0.0
aF0.0
aF0.0
aF0.0
aa(lp1305
F593.9206630400587
aF472.88608338532924
aF0.0
aF0.0
aF0.0
aF0.0
aF0.0
aa(lp1306
F595.6861453360948
aF470.46206879587874
aF0.0
aF0.0
aF0.0
aF0.0
aF0.0
aa(lp1307
F597.4517275914953
aF468.0380542064283
aF0.0
aF0.0
aF0.0
aF0.0
aF0.0
aa(lp1308
F597.5172009752516
aF467.9479908190017
aF0.0
aF0.0
aF0.0
aF0.0
aF0.0
aa(lp1309
F599.2859819303167
aF465.5263752542995
aF0.0
aF0.0
aF0.0
aF0.0
aF0.0
aa(lp1310
F601.0546629260173
aF463.10475968959724
aF0.0
aF0.0
aF0.0
aF0.0
aF0.0
aa(lp1311
F602.8234438810822
aF460.68304416553065
aF0.0
aF0.0
aF0.0
aF0.0
aF0.0
aa(lp1312
F604.6878859479865
aF458.1369791920092
aF0.0
aF0.0
aF0.0
aF0.0
aF0.0
aa(lp1313
F606.4597656433515
aF455.71766269269085
aF0.0
aF0.0
aF0.0
aF0.0
aF0.0
aa(lp1314
F608.2316453387164
aF453.2983461933724
aF0.0
aF0.0
aF0.0
aF0.0
aF0.0
aa(lp1315
F610.6760516385276
aF451.24568064308926
aF0.0
aF0.0
aF0.0
aF0.0
aF0.0
aa(lp1316
F613.6742328177432
aF448.8087712956166
aF0.0
aF0.0
aF0.0
aF0.0
aF0.0
aa(lp1317
F614.3138727912647
aF448.2888826407823
aF0.0
aF0.0
aF0.0
aF0.0
aF0.0
aa(lp1318
F616.6410267565016
aF446.39755150482375
aF0.0
aF0.0
aF0.0
aF0.0
aF0.0
aa(lp1319
F619.5759336579803
aF444.0116214332529
aF0.0
aF0.0
aF0.0
aF0.0
aF0.0
aa(lp1320
F622.4789535221792
aF441.65108104026837
aF0.0
aF0.0
aF0.0
aF0.0
aF0.0
aa(lp1321
F623.025631286703
aF441.20656174627726
aF0.0
aF0.0
aF0.0
aF0.0
aF0.0
aa(lp1322
F625.3524853738464
aF439.3148307728607
aF0.0
aF0.0
aF0.0
aF0.0
aF0.0
aa(lp1323
F625.8680757760067
aF438.8956011980914
aF0.0
aF0.0
aF0.0
aF0.0
aF0.0
aa(lp1324
F628.1952297412437
aF437.00427006213295
aF0.0
aF0.0
aF0.0
aF0.0
aF0.0
aa(lp1325
F628.681831927695
aF436.60873085675325
aF0.0
aF0.0
aF0.0
aF0.0
aF0.0
aa(lp1326
F631.0088859335674
aF434.7172997614303
aF0.0
aF0.0
aF0.0
aF0.0
aF0.0
aa(lp1327
F631.4662000262164
aF434.34555088480494
aF0.0
aF0.0
aF0.0
aF0.0
aF0.0
aa(lp1328
F633.7930541133599
aF432.45381991138845
aF0.0
aF0.0
aF0.0
aF0.0
aF0.0
aa(lp1329
F636.5479341993499
aF430.2139304713716
aF0.0
aF0.0
aF0.0
aF0.0
aF0.0
aa(lp1330
F639.2755253788275
aF427.9962320102768
aF0.0
aF0.0
aF0.0
aF0.0
aF0.0
aa(lp1331
F639.6473742148174
aF427.69385493262365
aF0.0
aF0.0
aF0.0
aF0.0
aF0.0
aa(lp1332
F641.9745281800544
aF425.8025237966653
aF0.0
aF0.0
aF0.0
aF0.0
aF0.0
aa(lp1333
F644.6467418715919
aF423.6307066838821
aF0.0
aF0.0
aF0.0
aF0.0
aF0.0
aa(lp1334
F644.9649125288381
aF423.37211180788586
aF0.0
aF0.0
aF0.0
aF0.0
aF0.0
aa(lp1335
F647.2916666566169
aF421.4803808344693
aF0.0
aF0.0
aF0.0
aF0.0
aF0.0
aa(lp1336
F647.5826483667156
aF421.2437770186661
aF0.0
aF0.0
aF0.0
aF0.0
aF0.0
aa(lp1337
F649.909702372588
aF419.35234592334314
aF0.0
aF0.0
aF0.0
aF0.0
aF0.0
aa(lp1338
F652.5016486944211
aF417.24500260067106
aF0.0
aF0.0
aF0.0
aF0.0
aF0.0
aa(lp1339
F655.0684052563968
aF415.1581509477244
aF0.0
aF0.0
aF0.0
aF0.0
aF0.0
aa(lp1340
F657.6089724648699
aF413.0931903956061
aF0.0
aF0.0
aF0.0
aF0.0
aF0.0
aa(lp1341
F660.1246497915793
aF411.04782187893244
aF0.0
aF0.0
aF0.0
aF0.0
aF0.0
aa(lp1342
F662.6156371552537
aF409.02334486944204
aF0.0
aF0.0
aF0.0
aF0.0
aF0.0
aa(lp1343
F665.082434352716
aF407.01776017984474
aF0.0
aF0.0
aF0.0
aF0.0
aF0.0
aa(lp1344
F667.5255411807885
aF405.0312677288695
aF0.0
aF0.0
aF0.0
aF0.0
aF0.0
aa(lp1345
F669.9444578426488
aF403.06526694761953
aF0.0
aF0.0
aF0.0
aF0.0
aF0.0
aa(lp1346
F672.3403838506711
aF401.11735881134643
aF0.0
aF0.0
aF0.0
aF0.0
aF0.0
aa(lp1347
F674.7366097367868
aF399.1696505938024
aF0.0
aF0.0
aF0.0
aF0.0
aF0.0
aa(lp1348
F677.064963214398
aF397.27652018928273
aF0.0
aF0.0
aF0.0
aF0.0
aF0.0
aa(lp1349
F679.3706259162645
aF395.402082185927
aF0.0
aF0.0
aF0.0
aF0.0
aF0.0
aa(lp1350
F681.6552971515835
aF393.5451370713611
aF0.0
aF0.0
aF0.0
aF0.0
aF0.0
aaa(lp1351
(lp1352
F555.1723150207109
aF136.79101277265107
aF0.0
aF0.0
aF0.0
aF0.0
aF0.0
aa(lp1353
F552.2920858916211
aF137.43545079566906
aF0.0
aF0.0
aF0.0
aF0.0
aF0.0
aa(lp1354
F549.3852675715708
aF138.08618625865137
aF0.0
aF0.0
aF0.0
aF0.0
aF0.0
aa(lp1355
F546.4499608326341
aF138.74301924286908
aF0.0
aF0.0
aF0.0
aF0.0
aF0.0
aa(lp1356
F543.5237503958683
aF139.39865271471274
aF0.0
aF0.0
aF0.0
aF0.0
aF0.0
aa(lp1357
F543.4874651465498
aF139.4067494232382
aF0.0
aF0.0
aF0.0
aF0.0
aF0.0
aa(lp1358
F540.5610547910549
aF140.06168317953018
aF0.0
aF0.0
aF0.0
aF0.0
aF0.0
aa(lp1359
F540.4955814072987
aF140.07627724674913
aF0.0
aF0.0
aF0.0
aF0.0
aF0.0
aa(lp1360
F537.5691710518038
aF140.7311110436766
aF0.0
aF0.0
aF0.0
aF0.0
aF0.0
aa(lp1361
F537.4747094523385
aF140.7523024289535
aF0.0
aF0.0
aF0.0
aF0.0
aF0.0
aa(lp1362
F534.548399056208
aF141.40723618524535
aF0.0
aF0.0
aF0.0
aF0.0
aF0.0
aa(lp1363
F534.4254490378564
aF141.43472501048657
aF0.0
aF0.0
aF0.0
aF0.0
aF0.0
aa(lp1364
F531.499138641726
aF142.08955880741394
aF0.0
aF0.0
aF0.0
aF0.0
aF0.0
aa(lp1365
F528.4191907023385
aF142.77887858509854
aF0.0
aF0.0
aF0.0
aF0.0
aF0.0
aa(lp1366
F525.3101545878776
aF143.47549539639263
aF0.0
aF0.0
aF0.0
aF0.0
aF0.0
aa(lp1367
F525.0955418322671
aF143.52357585072355
aF0.0
aF0.0
aF0.0
aF0.0
aF0.0
aa(lp1368
F522.1691314767721
aF144.17830968828645
aF0.0
aF0.0
aF0.0
aF0.0
aF0.0
aa(lp1369
F518.9973208813967
aF144.88812113569628
aF0.0
aF0.0
aF0.0
aF0.0
aF0.0
aa(lp1370
F515.7947228017513
aF145.6048297792575
aF0.0
aF0.0
aF0.0
aF0.0
aF0.0
aa(lp1371
F515.4856484466757
aF145.67400165950085
aF0.0
aF0.0
aF0.0
aF0.0
aF0.0
aa(lp1372
F512.5593380505452
aF146.32893541579278
aF0.0
aF0.0
aF0.0
aF0.0
aF0.0
aa(lp1373
F512.2186765362835
aF146.4052044109165
aF0.0
aF0.0
aF0.0
aF0.0
aF0.0
aa(lp1374
F509.29236614015304
aF147.06073792339552
aF0.0
aF0.0
aF0.0
aF0.0
aF0.0
aa(lp1375
F505.99120812709725
aF147.79953758651425
aF0.0
aF0.0
aF0.0
aF0.0
aF0.0
aa(lp1376
F502.656663686294
aF148.5458342019715
aF0.0
aF0.0
aF0.0
aF0.0
aF0.0
aa(lp1377
F502.2154430513318
aF148.64459405411077
aF0.0
aF0.0
aF0.0
aF0.0
aF0.0
aa(lp1378
F499.2890326958368
aF149.29942785103813
aF0.0
aF0.0
aF0.0
aF0.0
aF0.0
aa(lp1379
F495.88601609034185
aF150.0611182086305
aF0.0
aF0.0
aF0.0
aF0.0
aF0.0
aa(lp1380
F495.3750238189492
aF150.17547172163376
aF0.0
aF0.0
aF0.0
aF0.0
aF0.0
aa(lp1381
F492.4488133821833
aF150.8310052341128
aF0.0
aF0.0
aF0.0
aF0.0
aF0.0
aa(lp1382
F488.9747256685192
aF151.60848917129826
aF0.0
aF0.0
aF0.0
aF0.0
aF0.0
aa(lp1383
F488.39116289848994
aF151.73903610135275
aF0.0
aF0.0
aF0.0
aF0.0
aF0.0
aa(lp1384
F485.4647525429948
aF152.3940698170092
aF0.0
aF0.0
aF0.0
aF0.0
aF0.0
aa(lp1385
F484.84520440174083
aF152.53271345558932
aF0.0
aF0.0
aF0.0
aF0.0
aF0.0
aa(lp1386
F481.9187940462458
aF153.18764721188128
aF0.0
aF0.0
aF0.0
aF0.0
aF0.0
aa(lp1387
F481.26106142774756
aF153.33478739644505
aF0.0
aF0.0
aF0.0
aF0.0
aF0.0
aa(lp1388
F478.33465107225254
aF153.98972115273705
aF0.0
aF0.0
aF0.0
aF0.0
aF0.0
aa(lp1389
F474.7137230521182
aF154.80079143639887
aF0.0
aF0.0
aF0.0
aF0.0
aF0.0
aa(lp1390
F473.97932160103824
aF154.96532455038803
aF0.0
aF0.0
aF0.0
aF0.0
aF0.0
aa(lp1391
F471.0529112455432
aF155.6201583473154
aF0.0
aF0.0
aF0.0
aF0.0
aF0.0
aa(lp1392
F470.2795256423028
aF155.7931880072881
aF0.0
aF0.0
aF0.0
aF0.0
aF0.0
aa(lp1393
F467.3531152868079
aF156.4482217229446
aF0.0
aF0.0
aF0.0
aF0.0
aF0.0
aa(lp1394
F466.54084549077174
aF156.63004780699455
aF0.0
aF0.0
aF0.0
aF0.0
aF0.0
aa(lp1395
F463.61443513527684
aF157.28488160392192
aF0.0
aF0.0
aF0.0
aF0.0
aF0.0
aa(lp1396
F462.7608821216968
aF157.4758039901426
aF0.0
aF0.0
aF0.0
aF0.0
aF0.0
aa(lp1397
F459.7628009018456
aF157.40793158163797
aF0.0
aF0.0
aF0.0
aF0.0
aF0.0
aa(lp1398
F456.76481964135905
aF157.33995921376888
aF0.0
aF0.0
aF0.0
aF0.0
aF0.0
aa(lp1399
F453.7668383808725
aF157.27208680526422
aF0.0
aF0.0
aF0.0
aF0.0
aF0.0
aa(lp1400
F450.5793341652684
aF157.19621764759862
aF0.0
aF0.0
aF0.0
aF0.0
aF0.0
aa(lp1401
F447.58135290478185
aF157.1246467426069
aF0.0
aF0.0
aF0.0
aF0.0
aF0.0
aa(lp1402
F444.58347160365975
aF157.05317579697993
aF0.0
aF0.0
aF0.0
aF0.0
aF0.0
aa(lp1403
F444.4366312971895
aF157.0496772192219
aF0.0
aF0.0
aF0.0
aF0.0
aF0.0
aa(lp1404
F441.43884995543203
aF156.97380806155616
aF0.0
aF0.0
aF0.0
aF0.0
aF0.0
aa(lp1405
F438.44096865431004
aF156.89793890389055
aF0.0
aF0.0
aF0.0
aF0.0
aF0.0
aa(lp1406
F435.4431873125525
aF156.82216970558932
aF0.0
aF0.0
aF0.0
aF0.0
aF0.0
aa(lp1407
F432.34474689073
aF156.74000310795935
aF0.0
aF0.0
aF0.0
aF0.0
aF0.0
aa(lp1408
F429.34706550833675
aF156.66043545380663
aF0.0
aF0.0
aF0.0
aF0.0
aF0.0
aa(lp1409
F426.29910456559355
aF156.57956832791524
aF0.0
aF0.0
aF0.0
aF0.0
aF0.0
aa(lp1410
F423.301523142565
aF156.4955025023595
aF0.0
aF0.0
aF0.0
aF0.0
aF0.0
aa(lp1411
F420.3039417195364
aF156.4114366768037
aF0.0
aF0.0
aF0.0
aF0.0
aF0.0
aa(lp1412
F417.3101587523595
aF156.32737085124785
aF0.0
aF0.0
aF0.0
aF0.0
aF0.0
aa(lp1413
F414.31267728869545
aF156.23870689492443
aF0.0
aF0.0
aF0.0
aF0.0
aF0.0
aa(lp1414
F411.3151958250313
aF156.14994297923653
aF0.0
aF0.0
aF0.0
aF0.0
aF0.0
aa(lp1415
F408.381888273385
aF156.06307829147448
aF0.0
aF0.0
aF0.0
aF0.0
aF0.0
aa(lp1416
F405.38450676908553
aF155.96971624501884
aF0.0
aF0.0
aF0.0
aF0.0
aF0.0
aa(lp1417
F402.3872252241505
aF155.87625423919883
aF0.0
aF0.0
aF0.0
aF0.0
aF0.0
aa(lp1418
F399.5180915845218
aF155.7866906485948
aF0.0
aF0.0
aF0.0
aF0.0
aF0.0
aa(lp1419
F396.5209099989513
aF155.6883306339136
aF0.0
aF0.0
aF0.0
aF0.0
aF0.0
aa(lp1420
F393.5237284133809
aF155.58987065986787
aF0.0
aF0.0
aF0.0
aF0.0
aF0.0
aa(lp1421
F390.72436641018237
aF155.49800800388
aF0.0
aF0.0
aF0.0
aF0.0
aF0.0
aa(lp1422
F387.72738474334096
aF155.39405026478607
aF0.0
aF0.0
aF0.0
aF0.0
aF0.0
aa(lp1423
F384.73040307649944
aF155.2901924850566
aF0.0
aF0.0
aF0.0
aF0.0
aF0.0
aa(lp1424
F382.0071101496958
aF155.19593080432045
aF0.0
aF0.0
aF0.0
aF0.0
aF0.0
aa(lp1425
F379.010428360948
aF155.08637534081373
aF0.0
aF0.0
aF0.0
aF0.0
aF0.0
aa(lp1426
F376.013546653471
aF154.97691983667153
aF0.0
aF0.0
aF0.0
aF0.0
aF0.0
aa(lp1427
F373.3703211776426
aF154.88045904991606
aF0.0
aF0.0
aF0.0
aF0.0
aF0.0
aa(lp1428
F370.37373934825916
aF154.76510594326757
aF0.0
aF0.0
aF0.0
aF0.0
aF0.0
aa(lp1429
F367.3772574782403
aF154.64965287725454
aF0.0
aF0.0
aF0.0
aF0.0
aF0.0
aa(lp1430
F364.82129652763206
aF154.55119290320891
aF0.0
aF0.0
aF0.0
aF0.0
aF0.0
aa(lp1431
F361.8249146169777
aF154.4296423159605
aF0.0
aF0.0
aF0.0
aF0.0
aF0.0
aa(lp1432
F358.8286326656879
aF154.30819168807676
aF0.0
aF0.0
aF0.0
aF0.0
aF0.0
aa(lp1433
F356.36573388344164
aF154.2082323235633
aF0.0
aF0.0
aF0.0
aF0.0
aF0.0
aa(lp1434
F353.3696518508808
aF154.08058421507965
aF0.0
aF0.0
aF0.0
aF0.0
aF0.0
aa(lp1435
F350.37356981832
aF153.95293610659598
aF0.0
aF0.0
aF0.0
aF0.0
aF0.0
aa(lp1436
F348.0073317415583
aF153.85207710780205
aF0.0
aF0.0
aF0.0
aF0.0
aF0.0
aa(lp1437
F345.011549587091
aF153.71783168126046
aF0.0
aF0.0
aF0.0
aF0.0
aF0.0
aa(lp1438
F342.0157674326237
aF153.58358625471902
aF0.0
aF0.0
aF0.0
aF0.0
aF0.0
aa(lp1439
F339.75518640415265
aF153.48222745910238
aF0.0
aF0.0
aF0.0
aF0.0
aF0.0
aa(lp1440
F336.7598040871434
aF153.34098487704492
aF0.0
aF0.0
aF0.0
aF0.0
aF0.0
aa(lp1441
F333.76432181076973
aF153.19974229498746
aF0.0
aF0.0
aF0.0
aF0.0
aF0.0
aa(lp1442
F331.6121966927957
aF153.09828354000632
aF0.0
aF0.0
aF0.0
aF0.0
aF0.0
aa(lp1443
F328.61711425388006
aF152.95034368052643
aF0.0
aF0.0
aF0.0
aF0.0
aF0.0
aa(lp1444
F325.6219318555998
aF152.80220390231756
aF0.0
aF0.0
aF0.0
aF0.0
aF0.0
aa(lp1445
F323.5862593972839
aF152.70164478161695
aF0.0
aF0.0
aF0.0
aF0.0
aF0.0
aa(lp1446
F320.5914768364618
aF152.54590809170506
aF0.0
aF0.0
aF0.0
aF0.0
aF0.0
aa(lp1447
F317.59679423500415
aF152.39027136115774
aF0.0
aF0.0
aF0.0
aF0.0
aF0.0
aa(lp1448
F315.6807731360109
aF152.2906118747379
aF0.0
aF0.0
aF0.0
aF0.0
aF0.0
aa(lp1449
F312.68649037201135
aF152.12737823248742
aF0.0
aF0.0
aF0.0
aF0.0
aF0.0
aa(lp1450
F309.6921076486472
aF151.96414459023697
aF0.0
aF0.0
aF0.0
aF0.0
aF0.0
aa(lp1451
F307.90083583656667
aF151.8664842911074
aF0.0
aF0.0
aF0.0
aF0.0
aF0.0
aa(lp1452
F304.90685295066066
aF151.69555377778943
aF0.0
aF0.0
aF0.0
aF0.0
aF0.0
aa(lp1453
F301.9129700241191
aF151.52472322383602
aF0.0
aF0.0
aF0.0
aF0.0
aF0.0
aa(lp1454
F300.25024595480284
aF151.42976182754825
aF0.0
aF0.0
aF0.0
aF0.0
aF0.0
aa(lp1455
F297.25676286571934
aF151.2511344431627
aF0.0
aF0.0
aF0.0
aF0.0
aF0.0
aa(lp1456
F294.26327977663595
aF151.07230714004817
aF0.0
aF0.0
aF0.0
aF0.0
aF0.0
aa(lp1457
F292.73380154021606
aF150.9810442402475
aF0.0
aF0.0
aF0.0
aF0.0
aF0.0
aa(lp1458
F289.7408182479551
aF150.79422018797186
aF0.0
aF0.0
aF0.0
aF0.0
aF0.0
aa(lp1459
F286.7479349150587
aF150.60739613569626
aF0.0
aF0.0
aF0.0
aF0.0
aF0.0
aa(lp1460
F285.3532019020029
aF150.52043148856959
aF0.0
aF0.0
aF0.0
aF0.0
aF0.0
aa(lp1461
F282.36071840656456
aF150.32521084967487
aF0.0
aF0.0
aF0.0
aF0.0
aF0.0
aa(lp1462
F279.3683348704908
aF150.1299902107802
aF0.0
aF0.0
aF0.0
aF0.0
aF0.0
aa(lp1463
F278.11184565855706
aF150.0480235318792
aF0.0
aF0.0
aF0.0
aF0.0
aF0.0
aa(lp1464
F275.11996191930575
aF149.84460622509442
aF0.0
aF0.0
aF0.0
aF0.0
aF0.0
aa(lp1465
F272.12807818005456
aF149.64118891830952
aF0.0
aF0.0
aF0.0
aF0.0
aF0.0
aa(lp1466
F271.0111322409815
aF149.56531976064392
aF0.0
aF0.0
aF0.0
aF0.0
aF0.0
aa(lp1467
F268.0198482579173
aF149.35320598914637
aF0.0
aF0.0
aF0.0
aF0.0
aF0.0
aa(lp1468
F265.02856427485324
aF149.14119217701344
aF0.0
aF0.0
aF0.0
aF0.0
aF0.0
aa(lp1469
F264.0513615273699
aF149.07192033740563
aF0.0
aF0.0
aF0.0
aF0.0
aF0.0
aa(lp1470
F261.06067730049284
aF148.8517098573825
aF0.0
aF0.0
aF0.0
aF0.0
aF0.0
aa(lp1471
F258.0699930736157
aF148.6314993773595
aF0.0
aF0.0
aF0.0
aF0.0
aF0.0
aa(lp1472
F257.2343327862835
aF148.56992440881922
aF0.0
aF0.0
aF0.0
aF0.0
aF0.0
aa(lp1473
F254.2442483155935
aF148.34101746408345
aF0.0
aF0.0
aF0.0
aF0.0
aF0.0
aa(lp1474
F251.25426380426802
aF148.11191060061867
aF0.0
aF0.0
aF0.0
aF0.0
aF0.0
aa(lp1475
F247.5705613032194
aF147.82132872797814
aF0.0
aF0.0
aF0.0
aF0.0
aF0.0
aa(lp1476
F244.58117654808092
aF147.58392523725882
aF0.0
aF0.0
aF0.0
aF0.0
aF0.0
aa(lp1477
F244.02620215630236
aF147.53974319814384
aF0.0
aF0.0
aF0.0
aF0.0
aF0.0
aa(lp1478
F241.03751711671555
aF147.29364324271188
aF0.0
aF0.0
aF0.0
aF0.0
aF0.0
aa(lp1479
F238.04883207712874
aF147.0474433279153
aF0.0
aF0.0
aF0.0
aF0.0
aF0.0
aa(lp1480
F234.64471591862412
aF146.75896060192957
aF0.0
aF0.0
aF0.0
aF0.0
aF0.0
aa(lp1481
F231.6567305945889
aF146.50466397860737
aF0.0
aF0.0
aF0.0
aF0.0
aF0.0
aa(lp1482
F231.3769443333158
aF146.48087364985315
aF0.0
aF0.0
aF0.0
aF0.0
aF0.0
aa(lp1483
F228.38975868419675
aF146.21758068372486
aF0.0
aF0.0
aF0.0
aF0.0
aF0.0
aa(lp1484
F225.40257303507758
aF145.95428771759646
aF0.0
aF0.0
aF0.0
aF0.0
aF0.0
aa(lp1485
F222.27124598233007
aF145.66990332555577
aF0.0
aF0.0
aF0.0
aF0.0
aF0.0
aa(lp1486
F219.27126553455327
aF145.39691430106961
aF0.0
aF0.0
aF0.0
aF0.0
aF0.0
aa(lp1487
F216.2855792759018
aF145.11722799916106
aF0.0
aF0.0
aF0.0
aF0.0
aF0.0
aa(lp1488
F213.41614575817948
aF144.84833730861993
aF0.0
aF0.0
aF0.0
aF0.0
aF0.0
aa(lp1489
F210.43125917444422
aF144.5601544607278
aF0.0
aF0.0
aF0.0
aF0.0
aF0.0
aa(lp1490
F207.6877744560088
aF144.29526214476724
aF0.0
aF0.0
aF0.0
aF0.0
aF0.0
aa(lp1491
F204.70358758782504
aF143.9990825477139
aF0.0
aF0.0
aF0.0
aF0.0
aF0.0
aa(lp1492
F202.08325280647023
aF143.73908824061448
aF0.0
aF0.0
aF0.0
aF0.0
aF0.0
aa(lp1493
F199.0998656132026
aF143.43481193503567
aF0.0
aF0.0
aF0.0
aF0.0
aF0.0
aa(lp1494
F196.60008182545096
aF143.17981559616194
aF0.0
aF0.0
aF0.0
aF0.0
aF0.0
aa(lp1495
F193.61759426646393
aF142.86774246015096
aF0.0
aF0.0
aF0.0
aF0.0
aF0.0
aa(lp1496
F191.23356342281875
aF142.61834384568994
aF0.0
aF0.0
aF0.0
aF0.0
aF0.0
aaa.